(dp0
S'Tight'
p1
(dp2
S'ptabseta1.2-2.1'
p3
(dp4
S'6.0_8.0'
p5
(dp6
S'TriggerBias_MC'
p7
(dp8
S'efficiency'
p9
F0.99872655361704399
sS'err_hi'
p10
F0.0010284877748440305
sS'pt'
p11
F6.8275690295644615
sS'err_low'
p12
F0.0010309337447106657
ssS'data/mc'
p13
(dp14
g12
F0.014729912273759936
sS'efficiency_ratio'
p15
F0.98618914944207836
sg11
F6.8241576594101758
sg10
F0.014975560475156691
ssS'data'
p16
(dp17
g9
F0.92922699232155792
sg10
F0.014091868555928491
sg11
F6.820746289255891
sg12
F0.013860096589948976
ssS'mc'
p18
(dp19
g9
F0.94224012994591766
sg10
F0.00073649145476670415
sg11
F6.8275690295644615
sg12
F0.00073649145476670415
sssS'3.25_3.5'
p20
(dp21
g7
(dp22
g9
F1.0182707676020895
sg10
F0.002802130178096648
sg11
F3.3713533706105201
sg12
F0.0028086263746254438
ssg13
(dp23
g12
F0.02617219744158988
sg15
F1.0781542423674797
sg11
F3.3703071570435057
sg10
F0.027000983021532452
ssg16
(dp24
g9
F0.80705465484746941
sg10
F0.020144188449298984
sg11
F3.3692609434764913
sg12
F0.019521334625948763
ssg18
(dp25
g9
F0.74855213023628919
sg10
F0.001530308670707143
sg11
F3.3713533706105201
sg12
F0.001533827817506317
sssS'8.0_10.0'
p26
(dp27
g7
(dp28
g9
F0.99959728753136301
sg10
F0.0021475966781589438
sg11
F8.8488436188686741
sg12
F0.0021825759326203247
ssg13
(dp29
g12
F0.017626628439307603
sg15
F1.0445543272917184
sg11
F8.8545680099190065
sg10
F0.0056808273157255579
ssg16
(dp30
g9
F0.99493213992296459
sg10
F0.0050678600770354132
sg11
F8.8602924009693407
sg12
F0.016677886192814816
ssg18
(dp31
g9
F0.95249439299398397
sg10
F0.0018152354457135016
sg11
F8.8488436188686741
sg12
F0.0018483284310632602
sssS'5.0_6.0'
p32
(dp33
g7
(dp34
g9
F1.0007826090035612
sg10
F0.0012217587750798678
sg11
F5.4790820802645586
sg12
F0.0012274494648101943
ssg13
(dp35
g12
F0.016807403366044582
sg15
F1.0247715514667741
sg11
F5.462660580639132
sg10
F0.017159729025700662
ssg16
(dp36
g9
F0.94483440919671868
sg10
F0.015796954520260597
sg11
F5.4462390810137054
sg12
F0.015471334286703366
ssg18
(dp37
g9
F0.92199515867156934
sg10
F0.00085416310350214621
sg11
F5.4790820802645586
sg12
F0.00085878856630332019
sssS'2.5_2.75'
p38
(dp39
g7
(dp40
g9
F1.0111528000720165
sg10
F0.0046783258376661366
sg11
F2.621271493319373
sg12
F0.0046749009926027891
ssg13
(dp41
g12
F0.031107750876396723
sg15
F1.0850636567274141
sg11
F2.6193533020772612
sg10
F0.032235372430884222
ssg16
(dp42
g9
F0.43813438021876211
sg10
F0.01293595841053782
sg11
F2.6174351108351495
sg12
F0.012477850576702407
ssg18
(dp43
g9
F0.40378679859224947
sg10
F0.0013300859162065856
sg11
F2.621271493319373
sg12
F0.001328976061520881
sssS'3.75_4.0'
p44
(dp45
g7
(dp46
g9
F1.0085239633073217
sg10
F0.0024539960565325611
sg11
F3.8719903619895253
sg12
F0.0024633526339079433
ssg13
(dp47
g12
F0.027179322230901866
sg15
F1.0723182305625587
sg11
F3.8712989341111443
sg10
F0.028179952140864165
ssg16
(dp48
g9
F0.90163775933616885
sg10
F0.023637395662825779
sg11
F3.870607506232763
sg12
F0.022793591002515462
ssg18
(dp49
g9
F0.84083039310368934
sg10
F0.0015339705418821567
sg11
F3.8719903619895253
sg12
F0.0015382894414318353
sssS'2.75_3.0'
p50
(dp51
g7
(dp52
g9
F1.0178691680517549
sg10
F0.0037869673555080306
sg11
F2.8713014067449247
sg12
F0.0037875005710744348
ssg13
(dp53
g12
F0.027512595693846741
sg15
F1.0617182065898385
sg11
F2.8694788065732109
sg10
F0.028501957920869722
ssg16
(dp54
g9
F0.5844748665316265
sg10
F0.015612022287426577
sg11
F2.8676562064014974
sg12
F0.015064511184323844
ssg18
(dp55
g9
F0.55049905229459817
sg10
F0.001474349236073694
sg11
F2.8713014067449247
sg12
F0.0014746965614269877
sssS'2.0_2.5'
p56
(dp57
g7
(dp58
g9
F1.0035892260921375
sg10
F0.0049138392995143956
sg11
F2.2522793664064151
sg12
F0.0049053751364780771
ssg13
(dp59
g12
F0.028015637799029922
sg15
F1.1190266950876209
sg11
F2.2401623833582129
sg10
F0.028664808470800829
ssg16
(dp60
g9
F0.24681260541795003
sg10
F0.0062642487519696671
sg11
F2.2280454003100107
sg12
F0.0061198961916302868
ssg18
(dp61
g9
F0.22056006930078137
sg10
F0.00076394886663545629
sg11
F2.2522793664064151
sg12
F0.00076275222114508164
sssS'4.5_5.0'
p62
(dp63
g7
(dp64
g9
F1.0029260395552535
sg10
F0.0017167603194632979
sg11
F4.7384596554774436
sg12
F0.0017256199383826609
ssg13
(dp65
g12
F0.019426357912013179
sg15
F1.0146872794469801
sg11
F4.736598794825138
sg10
F0.019928715043145407
ssg16
(dp66
g9
F0.91298584117760151
sg10
F0.017892679199517338
sg11
F4.7347379341728315
sg12
F0.017439239502112933
ssg18
(dp67
g9
F0.89977065808412682
sg10
F0.0011588135984945268
sg11
F4.7384596554774436
sg12
F0.0011651289179047501
sssS'4.0_4.5'
p68
(dp69
g7
(dp70
g9
F1.0056782620322782
sg10
F0.0017063023011436754
sg11
F4.2372352242237454
sg12
F0.0017123810882032548
ssg13
(dp71
g12
F0.019250299359140847
sg15
F1.0478254842720853
sg11
F4.2360210261032734
sg10
F0.019249960677643157
ssg16
(dp72
g9
F0.91322708953767928
sg10
F0.016736745429005141
sg11
F4.2348068279828022
sg12
F0.016736745429005141
ssg18
(dp73
g9
F0.87154502657672017
sg10
F0.0011113423726342403
sg11
F4.2372352242237454
sg12
F0.0011153936143024101
sssS'3.0_3.25'
p74
(dp75
g7
(dp76
g9
F1.0204384809297435
sg10
F0.0031964216977953142
sg11
F3.1211884874725095
sg12
F0.003199406270404789
ssg13
(dp77
g12
F0.028606892758647542
sg15
F1.1116969299271033
sg11
F3.1197699364975922
sg10
F0.029654280542392979
ssg16
(dp78
g9
F0.74044100816147929
sg10
F0.019677940706329923
sg11
F3.1183513855226752
sg12
F0.018977540916625485
ssg18
(dp79
g9
F0.66604574342940015
sg10
F0.0015278413018204003
sg11
F3.1211884874725095
sg12
F0.0015288685112869887
sssS'3.5_3.75'
p80
(dp81
g7
(dp82
g9
F1.0141710831609851
sg10
F0.0026024693744452756
sg11
F3.6217188438220562
sg12
F0.0026102865699693749
ssg13
(dp83
g12
F0.026983527528378577
sg15
F1.0859100961334038
sg11
F3.6210764559010009
sg10
F0.027990726637702561
ssg16
(dp84
g9
F0.86954265190122615
sg10
F0.022351106078769833
sg11
F3.620434067979946
sg12
F0.021541854953212043
ssg18
(dp85
g9
F0.80075013115487503
sg10
F0.0015399847263315694
sg11
F3.6217188438220562
sg12
F0.0015446936854681028
sssS'10.0_20.0'
p86
(dp87
g7
(dp88
g9
F0.99771231115768733
sg10
F0.00244638550951132
sg11
F12.060325105822352
sg12
F0.0025025958393036086
ssg13
(dp89
g12
F0.019774843254904372
sg15
F0.99193716184838565
sg11
F12.129573103229692
sg10
F0.020265881485055145
ssg16
(dp90
g9
F0.95345742546648626
sg10
F0.019367285279624689
sg11
F12.198821100637032
sg12
F0.018886460420260112
ssg18
(dp91
g9
F0.96120748585505567
sg10
F0.0021068761406291291
sg11
F12.060325105822352
sg12
F0.0021610925404273108
ssssS'etapt8-20'
p92
(dp93
S'-0.2_0.2'
p94
(dp95
g7
(dp96
g9
F0.9906008114286835
sS'eta'
p97
F-0.00073556552934971986
sg10
F0.0016510084961673386
sg12
F0.0016692858521283728
ssg13
(dp98
g12
F0.011222111580782033
sg97
F-0.00062320724343685517
sg15
F0.99580208566714057
sg10
F0.011226948362439135
ssg16
(dp99
g9
F0.9676912253254939
sg97
F-0.00051084895752399049
sg10
F0.010827308294697939
sg12
F0.010820917024616409
ssg18
(dp100
g9
F0.97177063520326556
sg97
F-0.00073556552934971986
sg10
F0.0013465119800597767
sg12
F0.00135986008720525
sssS'-2.1_-1.6'
p101
(dp102
g7
(dp103
g9
F1.0158620245970857
sg97
F-1.782863671931699
sg10
F0.0049249774224640434
sg12
F0.0050558223765226687
ssg13
(dp104
g12
F0.034954274886507652
sg97
F-1.7843031214625542
sg15
F0.955172652272122
sg10
F0.036661440684915066
ssg16
(dp105
g9
F0.8861018960274506
sg97
F-1.7857425709934094
sg10
F0.033779105783504126
sg12
F0.032169757931584504
ssg18
(dp106
g9
F0.92768767397143437
sg97
F-1.782863671931699
sg10
F0.0041452459732222871
sg12
F0.004264789718916479
sssS'-1.2_-0.9'
p107
(dp108
g7
(dp109
g9
F0.99634886199338835
sg97
F-1.0450261665734764
sg10
F0.0026632256389848871
sg12
F0.0027242248757801584
ssg13
(dp110
g12
F0.018467752333291974
sg97
F-1.0434328741002683
sg15
F0.98428190600988363
sg10
F0.01880327669140372
ssg16
(dp111
g9
F0.93914758991442526
sg97
F-1.0418395816270605
sg10
F0.017810845483917571
sg12
F0.017481221369680239
ssg18
(dp112
g9
F0.9541449295980402
sg97
F-1.0450261665734764
sg10
F0.0021920220804756319
sg12
F0.0022497345754521445
sssS'1.6_2.1'
p113
(dp114
g7
(dp115
g9
F1.0090867261440053
sg97
F1.7913619792337685
sg10
F0.0039649677009168617
sg12
F0.0041007502474679136
ssg13
(dp116
g12
F0.032945126898106351
sg97
F1.7894064970059067
sg15
F1.0226880365738944
sg10
F0.030931073508014894
ssg16
(dp117
g9
F0.97084750841157519
sg97
F1.7874510147780449
sg10
F0.029152491588424811
sg12
F0.031062423242546197
ssg18
(dp118
g9
F0.94930953887366276
sg97
F1.7913619792337685
sg10
F0.0034331738351670092
sg12
F0.0035605361759526045
sssS'0.9_1.2'
p119
(dp120
g7
(dp121
g9
F0.99527244704911477
sg97
F1.0435391900322837
sg10
F0.0027778821125018296
sg12
F0.0028410503110817731
ssg13
(dp122
g12
F0.018911121632915348
sg97
F1.0423764964831177
sg15
F0.99250427996198098
sg10
F0.019247779511579959
ssg16
(dp123
g9
F0.94440418769111822
sg97
F1.0412138029339519
sg10
F0.018174012317392994
sg12
F0.017843489277354681
ssg18
(dp124
g9
F0.95153663995010151
sg97
F1.0435391900322837
sg10
F0.0022850142269794558
sg12
F0.0023448979492277106
sssS'-0.3_-0.2'
p125
(dp126
g7
(dp127
g9
F1.0111285141926099
sg97
F-0.24998263254006087
sg10
F0.0065107205373230066
sg12
F0.0066473993414318134
ssg13
(dp128
g12
F0.025129458870715281
sg97
F-0.24976214455585061
sg15
F0.9557631943049103
sg10
F0.025312384854702479
ssg16
(dp129
g9
F0.84243838184798225
sg97
F-0.24954165657164032
sg10
F0.021801060376191068
sg12
F0.021611904817361145
ssg18
(dp130
g9
F0.88143003085681193
sg97
F-0.24998263254006087
sg10
F0.0049628273599170636
sg12
F0.0050765660410107914
sssS'-0.6_-0.3'
p131
(dp132
g7
(dp133
g9
F0.99514909842493815
sg97
F-0.44988385862280506
sg10
F0.0015841659872091185
sg12
F0.00163721473455503
ssg13
(dp134
g12
F0.013425732433648391
sg97
F-0.44788974184188957
sg15
F0.99673009790861977
sg10
F0.013457441899140854
ssg16
(dp135
g9
F0.97668568951000168
sg97
F-0.44589562506097408
sg10
F0.01312156850393144
sg12
F0.01308512144024057
ssg18
(dp136
g9
F0.97988983332531432
sg97
F-0.44988385862280506
sg10
F0.0013144167672500863
sg12
F0.0013657365825663311
sssS'1.2_1.6'
p137
(dp138
g7
(dp139
g9
F0.99584502081567627
sg97
F1.3834406573234328
sg10
F0.0028622050786946394
sg12
F0.0029282174010849282
ssg13
(dp140
g12
F0.020660855642777164
sg97
F1.3816247907660277
sg15
F1.0058984774687827
sg10
F0.02115724746171406
ssg16
(dp141
g9
F0.96289450946696775
sg97
F1.3798089242086229
sg10
F0.020107651178121064
sg12
F0.019620990844746996
ssg18
(dp142
g9
F0.95724820251241549
sg97
F1.3834406573234328
sg10
F0.0024056705856147281
sg12
F0.0024691570935506326
sssS'0.2_0.3'
p143
(dp144
g7
(dp145
g9
F1.0171526291775792
sg97
F0.24963804002132209
sg10
F0.0069630114309119995
sg12
F0.0071076860756398158
ssg13
(dp146
g12
F0.026067713049254818
sg97
F0.24960469947937677
sg15
F0.98181419786819712
sg10
F0.026270498972833369
ssg16
(dp147
g9
F0.85484215337391634
sg97
F0.24957135893743146
sg10
F0.022285925983860221
sg12
F0.022077109735570803
ssg18
(dp148
g9
F0.87067609658734424
sg97
F0.24963804002132209
sg10
F0.005244748941698971
sg12
F0.0053638453469708027
sssS'0.6_0.9'
p149
(dp150
g7
(dp151
g9
F0.99517517829482227
sg97
F0.74816662927019206
sg10
F0.0023091755628214337
sg12
F0.0023654153345378098
ssg13
(dp152
g12
F0.015646973381556371
sg97
F0.74857413058599431
sg15
F0.99558221411902803
sg10
F0.015850127464744637
ssg16
(dp153
g9
F0.95679995609067081
sg97
F0.74898163190179667
sg10
F0.015112493751934781
sg12
F0.014908778069773492
ssg18
(dp154
g9
F0.96104564999418463
sg97
F0.74816662927019206
sg10
F0.0019183338420358386
sg12
F0.0019717212161365484
sssS'-0.9_-0.6'
p155
(dp156
g7
(dp157
g9
F0.99745100728164326
sg97
F-0.74935420970546041
sg10
F0.0022356349155229134
sg12
F0.0022893016678587051
ssg13
(dp158
g12
F0.016098833726889559
sg97
F-0.74781350720477624
sg15
F1.0285423891307734
sg10
F0.012321391543938427
ssg16
(dp159
g9
F0.98831440150897765
sg97
F-0.74627280470409196
sg10
F0.011685598491022353
sg12
F0.01534516599945589
ssg18
(dp160
g9
F0.9608883522478906
sg97
F-0.74935420970546041
sg10
F0.0018498600018727949
sg12
F0.0019006092056234483
sssS'-1.6_-1.2'
p161
(dp162
g7
(dp163
g9
F0.99075589726650859
sg97
F-1.3803161754781057
sg10
F0.0023512839266844388
sg12
F0.0024153727643560418
ssg13
(dp164
g12
F0.0070946724713512087
sg97
F-1.3784768349887588
sg15
F1.0291719210848038
sg10
F0.002090429948303771
ssg16
(dp165
g9
F0.99999999999999223
sg97
F-1.376637494499412
sg10
F7.7715611723760958e-15
sg12
F0.0065672269285521195
ssg18
(dp166
g9
F0.97165495823665426
sg97
F-1.3803161754781057
sg10
F0.0019736028378764749
sg12
F0.0020365129045238121
sssS'0.3_0.6'
p167
(dp168
g7
(dp169
g9
F0.99364914592826337
sg97
F0.44825130646268957
sg10
F0.0015771960634285425
sg12
F0.0016320737005954802
ssg13
(dp170
g12
F0.01358288117632412
sg97
F0.44807675049292151
sg15
F1.0014931680669046
sg10
F0.013684460487058287
ssg16
(dp171
g9
F0.98213314249403982
sg97
F0.44790219452315344
sg10
F0.013356342590531665
sg12
F0.013250838030837821
ssg18
(dp172
g9
F0.98066883909928848
sg97
F0.44825130646268957
sg10
F0.0013028428268151183
sg12
F0.0013566152406330743
ssssS'ptabseta<0.9'
p173
(dp174
S'6.0_8.0'
p175
(dp176
g7
(dp177
g9
F0.99664020211353044
sg10
F0.00070327826999621397
sg11
F6.8333993111375566
sg12
F0.00070694179238686662
ssg13
(dp178
g12
F0.0088582310396572005
sg15
F1.0004014391596345
sg11
F6.8288321639309677
sg10
F0.0088971099172425218
ssg16
(dp179
g9
F0.9418010372517589
sg10
F0.0083616037595904916
sg11
F6.8242650167243788
sg12
F0.0083247613184850924
ssg18
(dp180
g9
F0.94142311314835603
sg10
F0.000489737894347849
sg11
F6.8333993111375566
sg12
F0.0004927505039445711
sssS'5.0_6.0'
p181
(dp182
g7
(dp183
g9
F0.99762025953595379
sg10
F0.00090239602936541296
sg11
F5.478697255284092
sg12
F0.00090574774767227277
ssg13
(dp184
g12
F0.0096492238982252114
sg15
F1.0260598552658127
sg11
F5.4603770426730609
sg10
F0.0097040029929372339
ssg16
(dp185
g9
F0.93311793368455886
sg10
F0.0088028427997136772
sg11
F5.4420568300620307
sg12
F0.0087527252479548436
ssg18
(dp186
g9
F0.9094186161711042
sg10
F0.00060910740469702297
sg11
F5.478697255284092
sg12
F0.00061148198691571157
sssS'8.0_10.0'
p187
(dp188
g7
(dp189
g9
F0.99545722319482854
sg10
F0.0013052014087688295
sg11
F8.8709944080797243
sg12
F0.00067099120674753078
ssg13
(dp190
g12
F0.0081541851030029564
sg15
F0.99794933581285439
sg11
F8.8724443658843519
sg10
F0.0082689088667056328
ssg16
(dp191
g9
F0.95403035483434695
sg10
F0.0078314800460926974
sg11
F8.8738943236889813
sg12
F0.0077953257024480022
ssg18
(dp192
g9
F0.95599077087141471
sg10
F0.0010778283043243082
sg11
F8.8709944080797243
sg12
F-0.0
sssS'3.5_3.75'
p193
(dp194
g7
(dp195
g9
F1.0660799046733216
sg10
F0.0053659978113607069
sg11
F3.6225595032540636
sg12
F0.0053591680132097572
ssg13
(dp196
g12
F0.027291150002297072
sg15
F1.2869283183329112
sg11
F3.6215449662678223
sg10
F0.027718384698466013
ssg16
(dp197
g9
F0.38442317035877638
sg10
F0.008157113801862478
sg11
F3.620530429281581
sg12
F0.0080278647375271774
ssg18
(dp198
g9
F0.29871373943869595
sg10
F0.0011037349053702116
sg11
F3.6225595032540636
sg12
F0.0011023154626827755
sssS'15.0_20.0'
p199
(dp200
g7
(dp201
g9
F1.0009265615074709
sg10
F0.0032834956468998301
sg11
F16.84005543574515
sg12
F0.0034218893673906912
ssg13
(dp202
g12
F0.020925926811430347
sg15
F0.97673928119260789
sg11
F16.852667135059811
sg10
F0.021172620566018367
ssg16
(dp203
g9
F0.94196132533024968
sg10
F0.020239009628299554
sg11
F16.865278834374472
sg12
F0.019981382891707578
ssg18
(dp204
g9
F0.96439381876820396
sg10
F0.0027676367676542132
sg11
F16.84005543574515
sg12
F0.0028976700011964524
sssS'4.5_5.0'
p205
(dp206
g7
(dp207
g9
F1.0069157136059752
sg10
F0.001588058307777096
sg11
F4.7367799514763771
sg12
F0.0015909869078235912
ssg13
(dp208
g12
F0.012761128603840804
sg15
F1.0402778572540203
sg11
F4.7339186657740946
sg10
F0.012910954475372374
ssg16
(dp209
g9
F0.8534312364811536
sg10
F0.010544494174239336
sg11
F4.7310573800718112
sg12
F0.010420804878895273
ssg18
(dp210
g9
F0.82038777479501657
sg10
F0.00096314379913195068
sg11
F4.7367799514763771
sg12
F0.00096527897647844918
sssS'4.0_4.5'
p211
(dp212
g7
(dp213
g9
F1.022972964918627
sg10
F0.0019415136225263698
sg11
F4.2331643691985592
sg12
F0.0012951530864635818
ssg13
(dp214
g12
F0.012836576333729767
sg15
F1.0810800975217838
sg11
F4.2318601877852098
sg10
F0.013052107952161725
ssg16
(dp215
g9
F0.74067177990063693
sg10
F0.0088806461187856973
sg11
F4.2305560063718604
sg12
F0.0087946211041429693
ssg18
(dp216
g9
F0.68512201972686149
sg10
F0.00096953744572601255
sg11
F4.2331643691985592
sg12
F-0.0
sssS'3.75_4.0'
p217
(dp218
g7
(dp219
g9
F1.0443048692176442
sg10
F0.0037330195041488049
sg11
F3.8722193334507664
sg12
F0.0037315576769206536
ssg13
(dp220
g12
F0.02155118471019184
sg15
F1.1752698499870413
sg11
F3.8712110515770828
sg10
F0.021870132862818043
ssg16
(dp221
g9
F0.5739061649698517
sg10
F0.01057102856416557
sg11
F3.8702027697033987
sg12
F0.010413833247284263
ssg18
(dp222
g9
F0.48831863165398109
sg10
F0.0012923874276858838
sg11
F3.8722193334507664
sg12
F0.0012913568295634694
sssS'10.0_15.0'
p223
(dp224
g7
(dp225
g9
F0.99741476320452627
sg10
F0.0013670156033071458
sg11
F11.752056235989501
sg12
F0.0013895294771744658
ssg13
(dp226
g12
F0.00893427210799865
sg15
F1.0004467247634319
sg11
F11.777088920022919
sg10
F0.0089322830276273787
ssg16
(dp227
g9
F0.96498810491628728
sg10
F0.0085409695858362569
sg11
F11.802121604056337
sg12
F0.0085400673505769062
ssg18
(dp228
g9
F0.96455721332334887
sg10
F0.001131788976858986
sg11
F11.752056235989501
sg12
F0.0011529864029749301
ssssS'ptabseta0.9-1.2'
p229
(dp230
S'6.0_8.0'
p231
(dp232
g7
(dp233
g9
F0.99139250248536348
sg10
F0.0016199231371683373
sg11
F6.8270575640924447
sg12
F0.0016299376802464474
ssg13
(dp234
g12
F0.020886061920617385
sg15
F1.0413625463988945
sg11
F6.8262896156111061
sg10
F0.021418806954557196
ssg16
(dp235
g9
F0.95334328692277981
sg10
F0.019574544298614941
sg11
F6.8255216671297685
sg12
F0.019085467645669815
ssg18
(dp236
g9
F0.91547683390333989
sg10
F0.0011063714341023603
sg11
F6.8270575640924447
sg12
F0.0011142217704612767
sssS'3.25_3.5'
p237
(dp238
g7
(dp239
g9
F1.0084573358542241
sg10
F0.020709791572231538
sg11
F3.3718466145473598
sg12
F0.020542854369191423
ssg13
(dp240
g12
F0.10705014295271063
sg15
F1.625124643573026
sg11
F3.3709715715604593
sg10
F0.11158908904882499
ssg16
(dp241
g9
F0.12514586725401883
sg10
F0.008396538991942714
sg11
F3.3700965285735589
sg12
F0.0080418041145087684
ssg18
(dp242
g9
F0.077006934667405602
sg10
F0.0011245835603451966
sg11
F3.3718466145473598
sg12
F0.0011155072895557684
sssS'8.0_10.0'
p243
(dp244
g7
(dp245
g9
F0.9959257034022877
sg10
F0.0028131873139899143
sg11
F8.8794732639384257
sg12
F0.0028699539306649108
ssg13
(dp246
g12
F0.019160272645646955
sg15
F1.0018140841020637
sg11
F8.8805883929129958
sg10
F0.019533830621273084
ssg16
(dp247
g9
F0.94598514626441421
sg10
F0.018299592209000629
sg11
F8.881703521887566
sg12
F0.017937005731589899
ssg18
(dp248
g9
F0.94427215715609591
sg10
F0.0023093059770387852
sg11
F8.8794732639384257
sg12
F0.0023627404551022453
sssS'5.0_6.0'
p249
(dp250
g7
(dp251
g9
F0.99404802806476977
sg10
F0.002187398209083838
sg11
F5.4781880311937838
sg12
F0.0021973387006970361
ssg13
(dp252
g12
F0.021323960593382409
sg15
F1.0437626373174995
sg11
F5.4630673387749376
sg10
F0.035839435564957341
ssg16
(dp253
g9
F0.89687259383829976
sg10
F0.030760665765641647
sg11
F5.4479466463560922
sg12
F0.018263474829883348
ssg18
(dp254
g9
F0.85926872813084076
sg10
F0.001407082602535685
sg11
F5.4781880311937838
sg12
F0.0014140166403610996
sssS'3.5_3.75'
p255
(dp256
g7
(dp257
g9
F1.0407875531898017
sg10
F0.011431974785606883
sg11
F3.6208680456044275
sg12
F0.011390533535764875
ssg13
(dp258
g12
F0.06280282827666378
sg15
F1.4396252183500453
sg11
F3.6205610393645902
sg10
F0.065186610319303853
ssg16
(dp259
g9
F0.35672403636495764
sg10
F0.015900971507635458
sg11
F3.6202540331247528
sg12
F0.015302710205586535
ssg18
(dp260
g9
F0.24778951620047274
sg10
F0.001972571230066643
sg11
F3.6208680456044275
sg12
F0.0019646041676549737
sssS'4.5_5.0'
p261
(dp262
g7
(dp263
g9
F1.002237710139485
sg10
F0.0033515334228616488
sg11
F4.7360010579485818
sg12
F0.0033640525815503571
ssg13
(dp264
g12
F0.028594051831027301
sg15
F1.0708483624663379
sg11
F4.7339934411748672
sg10
F0.029451206439106075
ssg16
(dp265
g9
F0.84678328332099695
sg10
F0.023193818494654034
sg11
F4.7319858244011526
sg12
F0.022512376344111053
ssg18
(dp266
g9
F0.79075928301437326
sg10
F0.0019623250282266658
sg11
F4.7360010579485818
sg12
F0.0019701063757468292
sssS'4.0_4.5'
p267
(dp268
g7
(dp269
g9
F1.0165415056310905
sg10
F0.0039698260442639979
sg11
F4.2358680869827721
sg12
F0.0039749251409974297
ssg13
(dp270
g12
F0.028969857063838547
sg15
F1.1493499370505162
sg11
F4.233557353912822
sg10
F0.029783568467376963
ssg16
(dp271
g9
F0.76753016873397195
sg10
F0.019764662428504626
sg11
F4.2312466208428718
sg12
F0.019217480205641079
ssg18
(dp272
g9
F0.66779502394512025
sg10
F0.0019344093993641787
sg11
F4.2358680869827721
sg12
F0.0019364042443823066
sssS'3.0_3.25'
p273
(dp274
g7
(dp275
g9
F1.0032010226791546
sg10
F0.042538788144981098
sg11
F3.1287289861879137
sg12
F0.041785339702375524
ssg13
(dp276
g12
F0.20986142010221892
sg15
F1.6011846848081777
sg11
F3.1279082852633939
sg10
F0.23025207243812565
ssg16
(dp277
g9
F0.030021285090752692
sg10
F0.0042219641397859562
sg11
F3.1270875843388737
sg12
F0.0038337956972487141
ssg18
(dp278
g9
F0.01874942058563922
sg10
F0.00056288484551923496
sg11
F3.1287289861879137
sg12
F0.00055316701418028056
sssS'3.75_4.0'
p279
(dp280
g7
(dp281
g9
F1.0346110249577405
sg10
F0.0075352728769185889
sg11
F3.8709801660823153
sg12
F0.0075352671587088698
ssg13
(dp282
g12
F0.048838000674742345
sg15
F1.2556270205396325
sg11
F3.8698088503523511
sg10
F0.048385658981871395
ssg16
(dp283
g9
F0.58749978299124839
sg10
F0.02242016488429685
sg11
F3.8686375346223874
sg12
F0.022634077238108834
ssg18
(dp284
g9
F0.46789354910406267
sg10
F0.0025027985453922133
sg11
F3.8709801660823153
sg12
F0.0025015648153332848
sssS'10.0_20.0'
p285
(dp286
g7
(dp287
g9
F0.99634280574794609
sg10
F0.0025364573356787793
sg11
F12.421115501672114
sg12
F0.0026079174455831181
ssg13
(dp288
g12
F0.018093386412125281
sg15
F0.97289376926424798
sg11
F12.488853825664464
sg10
F0.018434882386552037
ssg16
(dp289
g9
F0.93727661259553852
sg10
F0.017643277704130121
sg11
F12.556592149656815
sg12
F0.017304118977955373
ssg18
(dp290
g9
F0.96339049771523877
sg10
F0.0020893708194792866
sg11
F12.421115501672114
sg12
F0.0021578008799757243
ssssS'vtxpt8-20_abseta<2.1'
p291
(dp292
S'4.5_6.5'
p293
(dp294
g7
(dp295
S'vtx'
p296
F5.6153651115618661
sg12
F0.0041232821843220678
sg10
F0.0039620225042225786
sg9
F0.99787198466466853
ssg13
(dp297
g296
F5.6298601550669662
sg15
F0.98194126948213201
sg10
F0.029456620782688417
sg12
F0.028691412633081281
ssg16
(dp298
g296
F5.6443551985720664
sg12
F0.027283497183260678
sg10
F0.028040014508289794
sg9
F0.9409629412279058
ssg18
(dp299
g296
F5.6153651115618661
sg12
F0.0034586825761202733
sg10
F0.0033062778509071662
sg9
F0.95826804562778189
sssS'20.5_22.5'
p300
(dp301
g7
(dp302
g296
F21.456681350954479
sg12
F0.0029148743594880747
sg10
F0.0028370046908031987
sg9
F0.99480975135273697
ssg13
(dp303
g296
F21.451568059340321
sg15
F0.9885137092448727
sg10
F0.020879002820857116
sg12
F0.020552327781212042
ssg16
(dp304
g296
F21.446454767726163
sg12
F0.019539922084534794
sg10
F0.019863824896223698
sg9
F0.94689256064512961
ssg18
(dp305
g296
F21.456681350954479
sg12
F0.0024296767526300646
sg10
F0.0023560847024612316
sg9
F0.95789522369746638
sssS'16.5_18.5'
p306
(dp307
g7
(dp308
g296
F17.487761562813681
sg12
F0.00228808896912245
sg10
F0.0022394525321205775
sg9
F0.99684427933759123
ssg13
(dp309
g296
F17.477165399601944
sg15
F0.99561741352058863
sg10
F0.01482781430579309
sg12
F0.014668929608558206
ssg16
(dp310
g296
F17.466569236390207
sg12
F0.013922169832910945
sg10
F0.01408186917842468
sg9
F0.95373004375147952
ssg18
(dp311
g296
F17.487761562813681
sg12
F0.0019125260505756206
sg10
F0.0018666937491447094
sg9
F0.9579282471356223
sssS'12.5_14.5'
p312
(dp313
g7
(dp314
g296
F13.502867472883681
sg12
F0.0020399303713329684
sg10
F0.0020001756054621677
sg9
F0.99712079845664503
ssg13
(dp315
g296
F13.503282848867876
sg15
F1.002123842360352
sg10
F0.012868552007404383
sg12
F0.012770197403195667
ssg16
(dp316
g296
F13.503698224852071
sg12
F0.012130660367833558
sg10
F0.012231164025919389
sg9
F0.96134345646557817
ssg18
(dp317
g296
F13.502867472883681
sg12
F0.0017059100711270898
sg10
F0.0016681870013530535
sg9
F0.9593060416577639
sssS'22.5_24.5'
p318
(dp319
g7
(dp320
g296
F23.452500432600797
sg12
F0.0035088909666356181
sg10
F0.0033998591965105364
sg9
F0.99645279721869084
ssg13
(dp321
g296
F23.435828603529217
sg15
F0.9958346540831069
sg10
F0.027150244117889799
sg12
F0.026574761178877315
ssg16
(dp322
g296
F23.419156774457633
sg12
F0.025261769326219867
sg10
F0.025827395373195949
sg9
F0.95291763240745198
ssg18
(dp323
g296
F23.452500432600797
sg12
F0.0029279322920793532
sg10
F0.0028250398483822201
sg9
F0.95690346635389001
sssS'2.5_4.5'
p324
(dp325
g7
(dp326
g296
F3.6648690292758088
sg12
F0.0072894383431034906
sg10
F0.0068003518128930459
sg9
F0.999178713482339
ssg13
(dp327
g296
F3.6943129676765785
sg15
F1.0255401534149349
sg10
F0.01886950159928379
sg12
F0.06431545948868915
ssg16
(dp328
g296
F3.7237569060773481
sg12
F0.061319346408603585
sg10
F0.017126791061781277
sg9
F0.98287320893821872
ssg18
(dp329
g296
F3.6648690292758088
sg12
F0.0061194490481621374
sg10
F0.0056623011960163115
sg9
F0.95839563732864086
sssS'24.5_26.5'
p330
(dp331
g7
(dp332
g296
F25.452205882352942
sg12
F0.0044581563014557167
sg10
F0.0042888012073099896
sg9
F0.99566195970349747
ssg13
(dp333
g296
F25.434682822833274
sg15
F1.0375355941199746
sg10
F0.010701834295278144
sg12
F0.041808249265689074
ssg16
(dp334
g296
F25.417159763313609
sg12
F0.039725703891425462
sg10
F0.0095300196512067004
sg9
F0.9904699803487933
ssg18
(dp335
g296
F25.452205882352942
sg12
F0.0037094946883150415
sg10
F0.0035482415088203337
sg9
F0.95463710928288514
sssS'18.5_20.5'
p336
(dp337
g7
(dp338
g296
F19.465467153968699
sg12
F0.0024812573230634581
sg10
F0.0024219379376003367
sg9
F0.99540505561999759
ssg13
(dp339
g296
F19.462439967312502
sg15
F1.0106316648139371
sg10
F0.01772143730429265
sg12
F0.017500067216549238
ssg16
(dp340
g296
F19.459412780656304
sg12
F0.016658570390606718
sg10
F0.016879525425011244
sg9
F0.96957569240109631
ssg18
(dp341
g296
F19.465467153968699
sg12
F0.0020678392096923647
sg10
F0.0020116685924654858
sg9
F0.95937592909242619
sssS'14.5_16.5'
p342
(dp343
g7
(dp344
g296
F15.483739032917738
sg12
F0.0021293971621008209
sg10
F0.0020881806217184469
sg9
F0.99645829191737223
ssg13
(dp345
g296
F15.482395009719271
sg15
F0.98006591143135224
sg10
F0.013531404936324726
sg12
F0.013396681361483866
ssg16
(dp346
g296
F15.481050986520804
sg12
F0.012715036510894655
sg10
F0.012850431301560045
sg9
F0.93887722387139427
ssg18
(dp347
g296
F15.483739032917738
sg12
F0.0017763408257888873
sg10
F0.0017371964337936946
sg9
F0.95797355353396252
sssS'0.5_2.5'
p348
(dp349
g7
(dp350
g296
F1.9053254437869822
sg12
F0.020029457680581862
sg10
F0.015985582030945873
sg9
F0.99891273641972633
ssg13
(dp351
g296
F1.8710300688322667
sg15
F0.90718525039086295
sg10
F0.13151917725305354
sg12
F0.15047393827605351
ssg16
(dp352
g296
F1.8367346938775511
sg12
F0.14415108508603047
sg10
F0.12614560396950769
sg9
F0.87385439603049231
ssg18
(dp353
g296
F1.9053254437869822
sg12
F0.016703857836719127
sg10
F0.012897124279573183
sg9
F0.96325904290660591
sssS'8.5_10.5'
p354
(dp355
g7
(dp356
g296
F9.5333224702623429
sg12
F0.0023538131827406583
sg10
F0.0023017723204047181
sg9
F0.99947800324876723
ssg13
(dp357
g296
F9.5436964720692039
sg15
F1.0229102017935026
sg10
F0.014785919948372198
sg12
F0.014606791219647365
ssg16
(dp358
g296
F9.5540704738760631
sg12
F0.013839413919883168
sg10
F0.014019803216720096
sg9
F0.97942217806290266
ssg18
(dp359
g296
F9.5333224702623429
sg12
F0.0019730059125437766
sg10
F0.0019243075916040859
sg9
F0.95748598102321103
sssS'28.5_30.5'
p360
(dp361
g7
(dp362
g296
F29.45077720207254
sg12
F0.006917472221774139
sg10
F0.0064885604818864431
sg9
F0.99492762374885468
ssg13
(dp363
g296
F29.447219586951761
sg15
F0.99644142763857535
sg10
F0.053100209812765239
sg12
F0.082522402439774462
ssg16
(dp364
g296
F29.443661971830984
sg12
F0.078445107216331592
sg10
F0.050335476527515688
sg9
F0.94966452347248431
ssg18
(dp365
g296
F29.45077720207254
sg12
F0.0056724117711362152
sg10
F0.0052585996418866993
sg9
F0.95305604236372865
sssS'10.5_12.5'
p366
(dp367
g7
(dp368
g296
F11.519308282408009
sg12
F0.0020917108451527205
sg10
F0.0020513342657918613
sg9
F0.99692385347747747
ssg13
(dp369
g296
F11.520116801983423
sg15
F0.98995734638499322
sg10
F0.012794269772945609
sg12
F0.01267684298796787
ssg16
(dp370
g296
F11.52092532155884
sg12
F0.012027440606493658
sg10
F0.012146523010798488
sg9
F0.94890298814999041
ssg18
(dp371
g296
F11.519308282408009
sg12
F0.0017468434001502472
sg10
F0.0017082626593384719
sg9
F0.95852916452923942
sssS'26.5_28.5'
p372
(dp373
g7
(dp374
g296
F27.438540840602695
sg12
F0.0056415373194346969
sg10
F0.0053893541718475473
sg9
F0.99950834412890766
ssg13
(dp375
g296
F27.421533503752549
sg15
F1.0159354631220041
sg10
F0.034206013140531989
sg12
F0.049250024683792581
ssg16
(dp376
g296
F27.404526166902404
sg12
F0.046667756881305318
sg10
F0.032263292204838034
sg9
F0.96773670779516197
ssg18
(dp377
g296
F27.438540840602695
sg12
F0.0047199939066423884
sg10
F0.0044831187552861985
sg9
F0.95255726660163464
sssS'6.5_8.5'
p378
(dp379
g7
(dp380
g296
F7.5694581280788178
sg12
F0.0027428046325228056
sg10
F0.0026626511238594421
sg9
F0.99611214524137315
ssg13
(dp381
g296
F7.5746253844297318
sg15
F0.99229548815865209
sg10
F0.018640167468974917
sg12
F0.018401587928095584
ssg16
(dp382
g296
F7.5797926407806466
sg12
F0.017542755917578055
sg10
F0.017783528420349207
sg9
F0.9539092185393917
ssg18
(dp383
g296
F7.5694581280788178
sg12
F0.0022932881271075459
sg10
F0.0022170215482261754
sg9
F0.96131568663030842
ssssS'absetapt8-20'
p384
(dp385
S'0.9_1.2'
p386
(dp387
g7
(dp388
g9
F0.99583999399180112
sg10
F0.0019284356835123882
sS'abseta'
p389
F1.0443044788141742
sg12
F0.0019603016062525081
ssg13
(dp390
g12
F0.013250301322915525
sg15
F0.98849060659755206
sg389
F1.0429200294510839
sg10
F0.013417321973073043
ssg16
(dp391
g9
F0.941863363489436
sg10
F0.012687767189017573
sg389
F1.0415355800879933
sg12
F0.012523612353117957
ssg18
(dp392
g9
F0.95282985716110136
sg10
F0.0015873732057278844
sg389
F1.0443044788141742
sg12
F0.0016176482654855894
sssS'1.2_2.1'
p393
(dp394
g7
(dp395
g9
F0.99897537356553179
sg10
F0.0016231290542849052
sg389
F1.5163894829760709
sg12
F0.0016449971253283888
ssg13
(dp396
g12
F0.013229341259252587
sg15
F1.0231261989881599
sg389
F1.5114698604389425
sg10
F0.013361278720319749
ssg16
(dp397
g9
F0.97803688349716289
sg10
F0.012693830973367756
sg389
F1.5065502379018141
sg12
F0.01256449747413301
ssg18
(dp398
g9
F0.95592985935108588
sg10
F0.0013829431682157751
sg389
F1.5163894829760709
sg12
F0.0014038053750887248
sssS'0_0.9'
p399
(dp400
g7
(dp401
g9
F0.99648289565278725
sg10
F0.00091414675253831737
sg389
F0.44116954528815872
sg12
F0.00092290376098457081
ssg13
(dp402
g12
F0.0058269314208650187
sg15
F0.99751806637429363
sg389
F0.43998334029288966
sg10
F0.0058342893021751168
ssg16
(dp403
g9
F0.9575876642930794
sg10
F0.0055496462022711157
sg389
F0.43879713529762054
sg12
F0.005541380358084917
ssg18
(dp404
g9
F0.95997024672811149
sg10
F0.00075670387090411636
sg389
F0.44116954528815872
sg12
F0.00076502950761281286
sssssS'Loose'
p405
(dp406
S'ptabseta1.2-2.1'
p407
(dp408
S'6.0_8.0'
p409
(dp410
g7
(dp411
g9
F1.0003899689363871
sg10
F0.00042532953504773849
sg11
F6.8275690295644615
sg12
F0.00042778953466878774
ssg13
(dp412
g12
F0.014010210982827764
sg15
F0.97682602474310509
sg11
F6.8241576594101758
sg10
F0.017200273220508371
ssg16
(dp413
g9
F0.96722964485500362
sg10
F0.014070343671175829
sg11
F6.820746289255891
sg12
F0.013868933619304358
ssg18
(dp414
g9
F0.99017595800580227
sg10
F0.0098240419941977297
sg11
F6.8275690295644615
sg12
F0.0003253314796047847
sssS'3.25_3.5'
p415
(dp416
g7
(dp417
g9
F1.0067143955528466
sg10
F0.001493680585764908
sg11
F3.3713533706105201
sg12
F0.0015018919030667483
ssg13
(dp418
g12
F0.02327413376787613
sg15
F1.0250574589611854
sg11
F3.3703071570435057
sg10
F0.024140546793139397
ssg16
(dp419
g9
F0.93836960177059747
sg10
F0.022074835407165563
sg11
F3.3692609434764913
sg12
F0.021280508760837747
ssg18
(dp420
g9
F0.91543122150592504
sg10
F0.0010081290334531009
sg11
F3.3713533706105201
sg12
F0.0010138209995104966
sssS'8.0_10.0'
p421
(dp422
g7
(dp423
g9
F1.0012477191113975
sg10
F0.00084651709160474156
sg11
F8.8488436188686741
sg12
F0.00088419534015454586
ssg13
(dp424
g12
F0.0036846020310590485
sg15
F1.0073424726738174
sg11
F8.8545680099190065
sg10
F0.00076832254576348735
ssg16
(dp425
g9
F0.99999999999999822
sg10
F1.7763568394002505e-15
sg11
F8.8602924009693407
sg12
F0.0035692189474829262
ssg18
(dp426
g9
F0.99271104626976581
sg10
F0.00075716283088213927
sg11
F8.8488436188686741
sg12
F0.00079402959377504728
sssS'5.0_6.0'
p427
(dp428
g7
(dp429
g9
F1.0013736878394957
sg10
F0.00053190831410862257
sg11
F5.4790820802645586
sg12
F0.00041517603004672684
ssg13
(dp430
g12
F0.014265558157659699
sg15
F1.0154577992774612
sg11
F5.462660580639132
sg10
F0.00041571752922729981
ssg16
(dp431
g9
F0.99999996900424604
sg10
F3.0995753963480865e-08
sg11
F5.4462390810137054
sg12
F0.01404228094771235
ssg18
(dp432
g9
F0.98477747644046454
sg10
F0.0004031573330397818
sg11
F5.4790820802645586
sg12
F0.00040829513308873684
sssS'2.5_2.75'
p433
(dp434
g7
(dp435
g9
F1.0024884958809157
sg10
F0.0021940077798426835
sg11
F2.621271493319373
sg12
F0.0022000395329533095
ssg13
(dp436
g12
F0.025091723663302284
sg15
F1.0491575541681475
sg11
F2.6193533020772612
sg10
F0.026063183142546804
ssg16
(dp437
g9
F0.79997396035481549
sg10
F0.019834268977035475
sg11
F2.6174351108351495
sg12
F0.019091903277970071
ssg18
(dp438
g9
F0.76249173174861817
sg10
F0.0011814312365643908
sg11
F2.621271493319373
sg12
F0.0011834078035693558
sssS'3.75_4.0'
p439
(dp440
g7
(dp441
g9
F1.003311380682488
sg10
F0.0012695761348911639
sg11
F3.8719903619895253
sg12
F0.0012764205127413584
ssg13
(dp442
g12
F0.023046241385782856
sg15
F1.034743157382167
sg11
F3.8712989341111443
sg10
F0.012409276411918996
ssg16
(dp443
g9
F0.98818610870179469
sg10
F0.011813891298205315
sg11
F3.870607506232763
sg12
F0.021988994124256867
ssg18
(dp444
g9
F0.95500617873312765
sg10
F0.00090485728157603171
sg11
F3.8719903619895253
sg12
F0.00091353976520274676
sssS'2.75_3.0'
p445
(dp446
g7
(dp447
g9
F1.0060061034372758
sg10
F0.0020009493835622116
sg11
F2.8713014067449247
sg12
F0.0020060755466637967
ssg13
(dp448
g12
F0.023391287730149261
sg15
F1.0192345201023203
sg11
F2.8694788065732109
sg10
F0.024265047347630395
ssg16
(dp449
g9
F0.83519154228497294
sg10
F0.019847776330138563
sg11
F2.8676562064014974
sg12
F0.019130264709942849
ssg18
(dp450
g9
F0.81943019571308151
sg10
F0.0011690852639743067
sg11
F2.8713014067449247
sg12
F0.0011720613070421882
sssS'2.0_2.5'
p451
(dp452
g7
(dp453
g9
F1.0004457744633319
sg10
F0.0018883526293748539
sg11
F2.2522793664064151
sg12
F0.0018853255845798465
ssg13
(dp454
g12
F0.020158827409650092
sg15
F1.0566584674213619
sg11
F2.2401623833582129
sg10
F0.020159174639645991
ssg16
(dp455
g9
F0.70819523553833197
sg10
F0.013478309258638769
sg11
F2.2280454003100107
sg12
F0.013478309258638769
ssg18
(dp456
g9
F0.67022151184440015
sg10
F0.0008904726029221985
sg11
F2.2522793664064151
sg12
F0.00088730444812515417
sssS'4.5_5.0'
p457
(dp458
g7
(dp459
g9
F1.0021358126266151
sg10
F0.00082993712700038568
sg11
F4.7384596554774436
sg12
F0.00083984215588842818
ssg13
(dp460
g12
F0.01832653624461119
sg15
F1.0031348404952514
sg11
F4.736598794825138
sg10
F0.018695028269061022
ssg16
(dp461
g9
F0.9792194967270802
sg10
F0.018238884482859243
sg11
F4.7347379341728315
sg12
F0.017878703282353092
ssg18
(dp462
g9
F0.97615939273292107
sg10
F0.00061535930352450208
sg11
F4.7384596554774436
sg12
F0.00062293939046763097
sssS'4.0_4.5'
p463
(dp464
g7
(dp465
g9
F1.0028416634150945
sg10
F0.00086273457966809476
sg11
F4.2372352242237454
sg12
F0.00087008502924319222
ssg13
(dp466
g12
F0.017838269763974162
sg15
F1.0149411404203514
sg11
F4.2360210261032734
sg10
F0.018281231412235643
ssg16
(dp467
g9
F0.98010992918615991
sg10
F0.017642287445469709
sg11
F4.2348068279828022
sg12
F0.01721403124540092
ssg18
(dp468
g9
F0.96568154561183162
sg10
F0.00062937343375203886
sg11
F4.2372352242237454
sg12
F0.00063489977994631269
sssS'3.0_3.25'
p469
(dp470
g7
(dp471
g9
F1.0071944007375968
sg10
F0.0017097565932562709
sg11
F3.1211884874725095
sg12
F0.0017162442071335048
ssg13
(dp472
g12
F0.025230101288757568
sg15
F1.0582929814147017
sg11
F3.1197699364975922
sg10
F0.026179718416960419
ssg16
(dp473
g9
F0.93012759894962449
sg10
F0.022980324347702447
sg11
F3.1183513855226752
sg12
F0.022144391689355142
ssg18
(dp474
g9
F0.8788942337180119
sg10
F0.0010889707361619204
sg11
F3.1211884874725095
sg12
F0.0010931611072190614
sssS'3.5_3.75'
p475
(dp476
g7
(dp477
g9
F1.0052794588341052
sg10
F0.0013643512987474259
sg11
F3.6217188438220562
sg12
F0.0013740681486157948
ssg13
(dp478
g12
F0.02393045192592505
sg15
F1.0146884016338145
sg11
F3.6210764559010009
sg10
F0.024696632003805129
ssg16
(dp479
g9
F0.95243505336217171
sg10
F0.023161114900560671
sg11
F3.620434067979946
sg12
F0.022440981445350526
ssg18
(dp480
g9
F0.93864781722999435
sg10
F0.00095646850155405689
sg11
F3.6217188438220562
sg12
F0.00096348113419907576
sssS'10.0_20.0'
p481
(dp482
g7
(dp483
g9
F1.0017663781986437
sg10
F0.0011430144448058004
sg11
F12.060325105822352
sg12
F0.0011430144448058004
ssg13
(dp484
g12
F0.019379522236950553
sg15
F1.0030947690036864
sg11
F12.129573103229692
sg10
F0.0048744612511857494
ssg16
(dp485
g9
F0.99526631586093028
sg10
F0.004733684139069716
sg11
F12.198821100637032
sg12
F0.019199710587671281
ssg18
(dp486
g9
F0.99219569936494456
sg10
F0.00098849917075597392
sg11
F12.060325105822352
sg12
F0.0010445326579581631
ssssS'etapt8-20'
p487
(dp488
S'-0.2_0.2'
p489
(dp490
g7
(dp491
g9
F1.0005724559509914
sg97
F-0.00073556552934971986
sg10
F0.00087919096743930148
sg12
F0.00092051252442401014
ssg13
(dp492
g12
F0.010766068870138279
sg97
F-0.00062320724343685517
sg15
F0.99865215744483005
sg10
F0.010392306392377561
ssg16
(dp493
g9
F0.98972844106719515
sg97
F-0.00051084895752399049
sg10
F0.010271558932804847
sg12
F0.010640066573282585
ssg18
(dp494
g9
F0.99106423962426793
sg97
F-0.00073556552934971986
sg10
F0.00075839131848398926
sg12
F0.00079795741626191498
sssS'-2.1_-1.6'
p495
(dp496
g7
(dp497
g9
F1.0021927997290738
sg97
F-1.782863671931699
sg10
F0.0016613223552173031
sg12
F0.0017895749184285849
ssg13
(dp498
g12
F0.033498717518834022
sg97
F-1.7843031214625542
sg15
F0.99176269199486111
sg10
F0.016334750557818731
ssg16
(dp499
g9
F0.98386548760446346
sg97
F-1.7857425709934094
sg10
F0.016134512395536538
sg12
F0.033191915100577507
ssg18
(dp500
g9
F0.99203720360309888
sg97
F-1.782863671931699
sg10
F0.0015188887472323779
sg12
F0.0016447661893500627
sssS'-1.2_-0.9'
p501
(dp502
g7
(dp503
g9
F1.0021697737957751
sg97
F-1.0450261665734764
sg10
F0.0012464071728531621
sg12
F0.0013118012420895312
ssg13
(dp504
g12
F0.017733824886024104
sg97
F-1.0434328741002683
sg15
F0.98179943303447392
sg10
F0.018028470327526396
ssg16
(dp505
g9
F0.97041930965792367
sg97
F-1.0418395816270605
sg10
F0.017787372690617358
sg12
F0.017491725812016991
ssg18
(dp506
g9
F0.98840891225473881
sg97
F-1.0450261665734764
sg10
F0.0010893974733494672
sg12
F0.0011522528500849611
sssS'1.6_2.1'
p507
(dp508
g7
(dp509
g9
F1.0023405186727423
sg97
F1.7913619792337685
sg10
F0.001663309136802736
sg12
F0.0017927983931582785
ssg13
(dp510
g12
F0.0016919868489821872
sg97
F1.7894064970059067
sg15
F1.008275212539506
sg10
F0.0015639686115597861
ssg16
(dp511
g9
F0.99999985909134126
sg97
F1.7874510147780449
sg10
F7.2939688344764164e-08
sg12
F7.2939688344764164e-08
ssg18
(dp512
g9
F0.99179256482233458
sg97
F1.7913619792337685
sg10
F0.0015384018366759063
sg12
F0.0016643273127640906
sssS'0.9_1.2'
p513
(dp514
g7
(dp515
g9
F1.0020222815558317
sg97
F1.0435391900322837
sg10
F0.0012500001894785949
sg12
F0.0013189082622552513
ssg13
(dp516
g12
F0.0011597914336797016
sg97
F1.0423764964831177
sg15
F0.98278405301627014
sg10
F0.01843588258315464
ssg16
(dp517
g9
F0.97221395614145045
sg97
F1.0412138029339519
sg10
F0.018205492285035551
sg12
F-0.0
ssg18
(dp518
g9
F0.98924474115918049
sg97
F1.0435391900322837
sg10
F0.0011006607802187963
sg12
F0.0011674157441686911
sssS'-0.3_-0.2'
p519
(dp520
g7
(dp521
g9
F1.0008639148553438
sg97
F-0.24998263254006087
sg10
F0.0020932566276787037
sg12
F0.0022503490198747364
ssg13
(dp522
g12
F0.021438453805524883
sg97
F-0.24976214455585061
sg15
F0.98342849162788237
sg10
F0.021589702583695847
ssg16
(dp523
g9
F0.96982079084943917
sg97
F-0.24954165657164032
sg10
F0.021217908698684469
sg12
F0.021055456394782037
ssg18
(dp524
g9
F0.98616299924774586
sg97
F-0.24998263254006087
sg10
F0.0017919603351353862
sg12
F0.0019410618217634314
sssS'-0.6_-0.3'
p525
(dp526
g7
(dp527
g9
F1.0011838841899958
sg97
F-0.44988385862280506
sg10
F0.00096478652879954823
sg12
F0.0010201770028129356
ssg13
(dp528
g12
F0.013195011079552928
sg97
F-0.44788974184188957
sg15
F0.99632829850523441
sg10
F0.012147213563779832
ssg16
(dp529
g9
F0.98798396275216338
sg97
F-0.44589562506097408
sg10
F0.01201603724783662
sg12
F0.013053887518357973
ssg18
(dp530
g9
F0.99162491342904757
sg97
F-0.44988385862280506
sg10
F0.00084478321524757833
sg12
F0.00089783888409934514
sssS'1.2_1.6'
p531
(dp532
g7
(dp533
g9
F1.002913162908917
sg97
F1.3834406573234328
sg10
F0.001260356755445881
sg12
F0.0013298491972240671
ssg13
(dp534
g12
F0.019851134997421829
sg97
F1.3816247907660277
sg15
F0.99925252065166992
sg10
F0.010213781985978708
ssg16
(dp535
g9
F0.98994524703018816
sg97
F1.3798089242086229
sg10
F0.010054752969811842
sg12
F0.019629467807748536
ssg18
(dp536
g9
F0.99068576417959697
sg97
F1.3834406573234328
sg10
F0.0011361855252225287
sg12
F0.0012029246263087579
sssS'0.2_0.3'
p537
(dp538
g7
(dp539
g9
F1.0043066443973487
sg97
F0.24963804002132209
sg10
F0.0024644491495964733
sg12
F0.0026274714459549281
ssg13
(dp540
g12
F0.021826556470853353
sg97
F0.24960469947937677
sg15
F0.98791503827576432
sg10
F0.021961747747842073
ssg16
(dp541
g9
F0.96832386715367513
sg97
F0.24957135893743146
sg10
F0.021423298139024657
sg12
F0.021274711453731172
ssg18
(dp542
g9
F0.98016917410602211
sg97
F0.24963804002132209
sg10
F0.0021282890288017147
sg12
F0.0022809661819508118
sssS'0.6_0.9'
p543
(dp544
g7
(dp545
g9
F0.9989494313526881
sg97
F0.74816662927019206
sg10
F0.00088967022939555546
sg12
F0.00094884882853697185
ssg13
(dp546
g12
F0.014916958065666548
sg97
F0.74857413058599431
sg15
F0.99360284552034006
sg10
F0.012103616679176039
ssg16
(dp547
g9
F0.98798830991968434
sg97
F0.74898163190179667
sg10
F0.012011690080315662
sg12
F0.014810548357176594
ssg18
(dp548
g9
F0.99434931610152999
sg97
F0.74816662927019206
sg10
F0.00075710208887946396
sg12
F0.00081494737646231141
sssS'-0.9_-0.6'
p549
(dp550
g7
(dp551
g9
F1.0011880329207805
sg97
F-0.74935420970546041
sg10
F0.00096288448769429825
sg12
F0.0010205008543225143
ssg13
(dp552
g12
F0.0046218354855108437
sg97
F-0.74781350720477624
sg15
F1.0077247782753067
sg10
F0.00085367269894418593
ssg16
(dp553
g9
F0.99999999999999978
sg97
F-0.74627280470409196
sg10
F2.2204460492503131e-16
sg12
F0.0044966490002602902
ssg18
(dp554
g9
F0.9923344365030623
sg97
F-0.74935420970546041
sg10
F0.00084063509693059729
sg12
F0.00089600297062258645
sssS'-1.6_-1.2'
p555
(dp556
g7
(dp557
g9
F0.99923753660225456
sg97
F-1.3803161754781057
sg10
F0.00098851969953026812
sg12
F0.0010571960199186417
ssg13
(dp558
g12
F0.0043044132072457813
sg97
F-1.3784768349887588
sg15
F1.0051137405061865
sg10
F0.00086118919843824495
ssg16
(dp559
g9
F0.99999999999961897
sg97
F-1.376637494499412
sg10
F3.8102854205135372e-13
sg12
F0.0041813993203925091
ssg18
(dp560
g9
F0.99491227678969718
sg97
F-1.3803161754781057
sg10
F0.00085244850571179211
sg12
F0.00092039978401531526
sssS'0.3_0.6'
p561
(dp562
g7
(dp563
g9
F1.0002802410599698
sg97
F0.44825130646268957
sg10
F0.00089345167504341697
sg12
F0.00045238168072485026
ssg13
(dp564
g12
F0.013203706546715164
sg97
F0.44807675049292151
sg15
F0.99963248177959751
sg10
F0.007340030956396076
ssg16
(dp565
g9
F0.99275174312170122
sg97
F0.44790219452315344
sg10
F0.0072482568782987755
sg12
F0.013112821890884691
ssg18
(dp566
g9
F0.99311673161555647
sg97
F0.44825130646268957
sg10
F0.00077468292604753169
sg12
F-0.0
ssssS'ptabseta<0.9'
p567
(dp568
S'6.0_8.0'
p569
(dp570
g7
(dp571
g9
F1.0006390854200573
sg10
F0.00036921426270229539
sg11
F6.8333993111375566
sg12
F0.00037261984546625357
ssg13
(dp572
g12
F0.0084227699719470004
sg15
F1.0021093394274592
sg11
F6.8288321639309677
sg10
F0.0084157861954377924
ssg16
(dp573
g9
F0.98500855344591387
sg10
F0.008267642667586568
sg11
F6.8242650167243788
sg12
F0.0082744245411414674
ssg18
(dp574
g9
F0.98293520945397472
sg10
F0.00027314577274463865
sg11
F6.8333993111375566
sg12
F0.00027574230298173875
sssS'5.0_6.0'
p575
(dp576
g7
(dp577
g9
F1.0015159331185874
sg10
F0.0005443764936473442
sg11
F5.4786979031894729
sg12
F0.00054782514964581738
ssg13
(dp578
g12
F0.0090980579262731395
sg15
F1.023692816121162
sg11
F5.4603773666257513
sg10
F0.0091058057994112072
ssg16
(dp579
g9
F0.9877864819756097
sg10
F0.0087771279470787496
sg11
F5.4420568300620307
sg12
F0.008769520667549352
ssg18
(dp580
g9
F0.96492469852274265
sg10
F0.00039456647499991874
sg11
F5.4786979031894729
sg12
F0.00039717180472879199
sssS'8.0_10.0'
p581
(dp582
g7
(dp583
g9
F1.0009409788707044
sg10
F0.00062734340976885582
sg11
F8.8709944080797243
sg12
F0.00064460432215510523
ssg13
(dp584
g12
F0.0078491839657046057
sg15
F1.0006315821689435
sg11
F8.8724443658843519
sg10
F0.0078250554451771443
ssg16
(dp585
g9
F0.98990267625341111
sg10
F0.0077219346930748004
sg11
F8.8738943236889813
sg12
F0.0077446816607293469
ssg18
(dp586
g9
F0.9892778659931194
sg10
F0.00054480928309872984
sg11
F8.8709944080797243
sg12
F0.00056134211561850137
sssS'3.5_3.75'
p587
(dp588
g7
(dp589
g9
F1.0169356395023341
sg10
F0.002095165569175684
sg11
F3.6225595032540636
sg12
F0.002098444162812429
ssg13
(dp590
g12
F0.015314744023532787
sg15
F1.0569299022807623
sg11
F3.6215449662678223
sg10
F0.015541678404321888
ssg16
(dp591
g9
F0.76473424763422204
sg10
F0.011186294842999772
sg11
F3.620530429281581
sg12
F0.011021046483128561
ssg18
(dp592
g9
F0.72354301452158032
sg10
F0.0010863983462294901
sg11
F3.6225595032540636
sg12
F0.0010879947446946364
sssS'15.0_20.0'
p593
(dp594
g7
(dp595
g9
F1.0008132486132837
sg10
F0.0011482207064693181
sg11
F16.84005543574515
sg12
F0.0012911927581637185
ssg13
(dp596
g12
F0.01996422981932729
sg15
F0.99010632699246037
sg11
F16.852667135059811
sg10
F0.015131054065407708
ssg16
(dp597
g9
F0.98498053545433994
sg10
F0.015019464545660055
sg11
F16.865278834374472
sg12
F0.019828311003720244
ssg18
(dp598
g9
F0.99482298880596942
sg10
F0.0010100314599075142
sg11
F16.84005543574515
sg12
F0.0011482107995706488
sssS'4.5_5.0'
p599
(dp600
g7
(dp601
g9
F1.0042182454751234
sg10
F0.00094712321836792955
sg11
F4.7367799514763771
sg12
F0.00095191136834959567
ssg13
(dp602
g12
F0.01150262388865495
sg15
F1.0202249650947246
sg11
F4.7339186657740946
sg10
F0.011608573007187817
ssg16
(dp603
g9
F0.94677620484745306
sg10
F0.010752124367111726
sg11
F4.7310573800718112
sg12
F0.010653393830770031
ssg18
(dp604
g9
F0.92800728980352676
sg10
F0.00065452812135504399
sg11
F4.7367799514763771
sg12
F0.0006579251433555172
sssS'4.0_4.5'
p605
(dp606
g7
(dp607
g9
F1.0097156468962338
sg10
F0.0010387762653635137
sg11
F4.2331643691985592
sg12
F0.0010401475493735516
ssg13
(dp608
g12
F0.010612161868492877
sg15
F1.0298446199935813
sg11
F4.2318601877852098
sg10
F0.010722471533446489
ssg16
(dp609
g9
F0.9068313613801211
sg10
F0.0094163269883993251
sg11
F4.2305560063718604
sg12
F0.0093189292739983397
ssg18
(dp610
g9
F0.88055163252275181
sg10
F0.00067154499655790623
sg11
F4.2331643691985592
sg12
F0.00067154499655790623
sssS'3.75_4.0'
p611
(dp612
g7
(dp613
g9
F1.0143911069903853
sg10
F0.0017441469410298188
sg11
F3.8722193334507664
sg12
F0.0017461607022717424
ssg13
(dp614
g12
F0.014998302102119833
sg15
F1.0343535922617679
sg11
F3.8712110515770828
sg10
F0.015223552416070724
ssg16
(dp615
g9
F0.83661913384694975
sg10
F0.01226733318060062
sg11
F3.8702027697033987
sg12
F0.012084450206730817
ssg18
(dp616
g9
F0.8088328209094896
sg10
F0.0010277597151760465
sg11
F3.8722193334507664
sg12
F0.0010277597151760465
sssS'10.0_15.0'
p617
(dp618
g7
(dp619
g9
F1.0004292830608987
sg10
F0.00057473862598480141
sg11
F11.752056235989501
sg12
F0.00059859061801346481
ssg13
(dp620
g12
F0.0084431319586530662
sg15
F1.0010901600580342
sg11
F11.777088920022919
sg10
F0.0054818248176334078
ssg16
(dp621
g9
F0.99457668943702515
sg10
F0.0054233105629748479
sg11
F11.802121604056337
sg12
F0.0083719924694103005
ssg18
(dp622
g9
F0.99349362237200345
sg10
F0.00049779400529708349
sg11
F11.752056235989501
sg12
F0.00052058854433931548
ssssS'ptabseta0.9-1.2'
p623
(dp624
S'6.0_8.0'
p625
(dp626
g7
(dp627
g9
F1.0004412172975468
sg10
F0.00074314332371771001
sg11
F6.8270575640924447
sg12
F0.00075398298006543359
ssg13
(dp628
g12
F0.015470076410342558
sg15
F1.0195357439565735
sg11
F6.8262896156111061
sg10
F0.00057516854682002549
ssg16
(dp629
g9
F0.99999999960491492
sg10
F3.9508507576613283e-10
sg11
F6.8255216671297685
sg12
F0.015162819045391955
ssg18
(dp630
g9
F0.98083858808535229
sg10
F0.00055333764286144419
sg11
F6.8270575640924447
sg12
F0.00056217481205252605
sssS'3.25_3.5'
p631
(dp632
g7
(dp633
g9
F1.0073572926798151
sg10
F0.0061566341694207754
sg11
F3.3718466145473598
sg12
F0.0061552697983137204
ssg13
(dp634
g12
F0.03866051904751542
sg15
F1.1604541529098145
sg11
F3.3709715715604593
sg10
F0.040098839251035211
ssg16
(dp635
g9
F0.55990100544608279
sg10
F0.019193124624449508
sg11
F3.3700965285735589
sg12
F0.018493502129683526
ssg18
(dp636
g9
F0.48248438255155773
sg10
F0.0020989561326680548
sg11
F3.3718466145473598
sg12
F0.0020981693780324196
sssS'8.0_10.0'
p637
(dp638
g7
(dp639
g9
F1.0024760924433165
sg10
F0.0012871347406884798
sg11
F8.8794732639384257
sg12
F0.0013458824244358769
ssg13
(dp640
g12
F0.018306770233627458
sg15
F0.99382581559847316
sg11
F8.8805883929129958
sg10
F0.018573964994830487
ssg16
(dp641
g9
F0.98117528985357305
sg10
F0.018302806820070641
sg11
F8.881703521887566
sg12
F0.018034951833037893
ssg18
(dp642
g9
F0.98727088233536975
sg10
F0.0011350351211560294
sg11
F8.8794732639384257
sg12
F0.0011908360238015354
sssS'5.0_6.0'
p643
(dp644
g7
(dp645
g9
F1.0017875427654876
sg10
F0.00111192446758501
sg11
F5.4781880311937838
sg12
F0.0011235944138369026
ssg13
(dp646
g12
F0.019246296114924365
sg15
F1.0112895240844129
sg11
F5.4630673387749376
sg10
F0.019693227939472036
ssg16
(dp647
g9
F0.97057154295561809
sg10
F0.018882655193695457
sg11
F5.4479466463560922
sg12
F0.01845290416112548
ssg18
(dp648
g9
F0.95973657379111144
sg10
F0.00080763966844899025
sg11
F5.4781880311937838
sg12
F0.00081661147975781439
sssS'2.5_2.75'
p649
(dp650
g7
(dp651
g9
F0.99928200473040485
sg10
F0.023651470642761605
sg11
F2.623878012207594
sg12
F0.023429708156041611
ssg13
(dp652
g12
F0.11832817875733281
sg15
F1.2333486395319457
sg11
F2.6220842641035866
sg10
F0.12662099515135691
ssg16
(dp653
g9
F0.1267473997659937
sg10
F0.012838639017865151
sg11
F2.6202905159995793
sg12
F0.01197733320887588
ssg18
(dp654
g9
F0.10276688659104061
sg10
F0.0017186460528932342
sg11
F2.623878012207594
sg12
F0.0017035315082749678
sssS'3.75_4.0'
p655
(dp656
g7
(dp657
g9
F1.0121290414882014
sg10
F0.003622187339348432
sg11
F3.8709801660823153
sg12
F0.00363781732077879
ssg13
(dp658
g12
F0.032448256004965217
sg15
F1.0610377929859933
sg11
F3.8698088503523511
sg10
F0.033727028565211571
ssg16
(dp659
g9
F0.83644370580348426
sg10
F0.026497378562864025
sg11
F3.8686375346223874
sg12
F0.025484870363234744
ssg18
(dp660
g9
F0.78832602507922733
sg10
F0.0020659432135917079
sg11
F3.8709801660823153
sg12
F0.0020751096071548584
sssS'2.75_3.0'
p661
(dp662
g7
(dp663
g9
F0.99959561125933216
sg10
F0.014797464365295183
sg11
F2.8800402180870082
sg12
F0.014724630464534209
ssg13
(dp664
g12
F0.081417573813397343
sg15
F1.3583973878831519
sg11
F2.878956522124696
sg10
F0.085657285108840422
ssg16
(dp665
g9
F0.21161645832498166
sg10
F0.013158976027922256
sg11
F2.8778728261623834
sg12
F0.012490580506708147
ssg18
(dp666
g9
F0.15578391140368175
sg10
F0.0016302953493120391
sg11
F2.8800402180870082
sg12
F0.0016225294267547476
sssS'4.5_5.0'
p667
(dp668
g7
(dp669
g9
F1.0035018548530719
sg10
F0.0018155586925138161
sg11
F4.7360010579485818
sg12
F0.0018316659416391702
ssg13
(dp670
g12
F0.024860530760708332
sg15
F0.99643471380136062
sg11
F4.7339934411748672
sg10
F0.025639311812674755
ssg16
(dp671
g9
F0.92557688372724933
sg10
F0.023783087576060433
sg11
F4.7319858244011526
sg12
F0.023058018447198091
ssg18
(dp672
g9
F0.92888863756683937
sg10
F0.0012573664795363056
sg11
F4.7360010579485818
sg12
F0.001269016872600792
sssS'4.0_4.5'
p673
(dp674
g7
(dp675
g9
F1.0081493920098614
sg10
F0.0021236263160810832
sg11
F4.2358680869827721
sg12
F0.0021341340966277438
ssg13
(dp676
g12
F0.023549108286986704
sg15
F1.0342690003447974
sg11
F4.233557353912822
sg10
F0.024231454186349526
ssg16
(dp677
g9
F0.90514214539508742
sg10
F0.021158719703769393
sg11
F4.2312466208428718
sg12
F0.020559672733972977
ssg18
(dp678
g9
F0.8751515757441608
sg10
F0.0013712130522010025
sg11
F4.2358680869827721
sg12
F0.0013783714208782244
sssS'3.0_3.25'
p679
(dp680
g7
(dp681
g9
F1.000937713933205
sg10
F0.010708404191183785
sg11
F3.1287289861879137
sg12
F0.010672540546122471
ssg13
(dp682
g12
F0.061590064558558172
sg15
F1.4807529231627585
sg11
F3.1279082852633939
sg10
F0.063892472032414147
ssg16
(dp683
g9
F0.33449371634348224
sg10
F0.014209177437572109
sg11
F3.1270875843388737
sg12
F0.013682196454657503
ssg18
(dp684
g9
F0.22589434814623427
sg10
F0.0017097074865095178
sg11
F3.1287289861879137
sg12
F0.0017037687430101239
sssS'3.5_3.75'
p685
(dp686
g7
(dp687
g9
F1.011937089522535
sg10
F0.0043148930099923891
sg11
F3.6208680456044275
sg12
F0.0043204515895074293
ssg13
(dp688
g12
F0.033702357208003242
sg15
F1.1312942290814796
sg11
F3.6205610393645902
sg10
F0.034970240920948761
ssg16
(dp689
g9
F0.78401357079037182
sg10
F0.024115042284018045
sg11
F3.6202540331247528
sg12
F0.023231252157036263
ssg18
(dp690
g9
F0.69302357480151566
sg10
F0.0021306007636853271
sg11
F3.6208680456044275
sg12
F0.0021354737051154805
sssS'10.0_20.0'
p691
(dp692
g7
(dp693
g9
F1.0017272113797679
sg10
F0.0011804676452234607
sg11
F12.421115501672114
sg12
F0.0012360472221505912
ssg13
(dp694
g12
F0.01742599145723121
sg15
F0.9700212216863987
sg11
F12.488853825664464
sg10
F0.017742171043314416
ssg16
(dp695
g9
F0.96102977572435644
sg10
F0.017549251421500295
sg11
F12.556592149656815
sg12
F0.017232580379411729
ssg18
(dp696
g9
F0.99073067087500366
sg10
F0.0010307865017865781
sg11
F12.421115501672114
sg12
F0.0010811723635407203
ssssS'vtxpt8-20_abseta<2.1'
p697
(dp698
S'4.5_6.5'
p699
(dp700
g7
(dp701
g296
F5.6153651115618661
sg12
F0.0017549186017741373
sg10
F0.0015813126806817476
sg9
F1.0016260248512117
ssg13
(dp702
g296
F5.6298601550669662
sg15
F0.97819907445547372
sg10
F0.028324686549430721
sg12
F0.027586201466598053
ssg16
(dp703
g296
F5.6443551985720664
sg12
F0.027317714583762028
sg10
F0.028059745379451405
sg9
F0.9701915554023699
ssg18
(dp704
g296
F5.6153651115618661
sg12
F0.0015614363411475757
sg10
F0.001393198158591271
sg9
F0.99181401898426325
sssS'20.5_22.5'
p705
(dp706
g7
(dp707
g296
F21.456681350954479
sg12
F0.001498536340003194
sg10
F0.0014162798247070072
sg9
F1.0016981450263942
ssg13
(dp708
g296
F21.451568059340321
sg15
F0.99298255080728093
sg10
F0.018202784615751047
sg12
F0.019823692512955886
ssg16
(dp709
g296
F21.446454767726163
sg12
F0.019560899340407507
sg10
F0.017959471052159226
sg9
F0.98204052894784077
ssg18
(dp710
g296
F21.456681350954479
sg12
F0.0013272587689713185
sg10
F0.0012483846307092643
sg9
F0.98898065041470828
sssS'16.5_18.5'
p711
(dp712
g7
(dp713
g296
F17.487761562813681
sg12
F0.0010314968777522476
sg10
F0.00097963569212807899
sg9
F1.0009073129291435
ssg13
(dp714
g296
F17.477165399601944
sg15
F0.99778263961293812
sg10
F0.010635827147074887
sg12
F0.013995051380509216
ssg16
(dp715
g296
F17.466569236390207
sg12
F0.013848826088749568
sg10
F0.010512278270150777
sg9
F0.98948772172984922
ssg18
(dp716
g296
F17.487761562813681
sg12
F0.00091223428790298796
sg10
F0.000862037239248204
sg9
F0.99168664842043486
sssS'12.5_14.5'
p717
(dp718
g7
(dp719
g296
F13.502867472883681
sg12
F0.00095055997989976074
sg10
F0.00090631942055231318
sg9
F1.0012770936365609
ssg13
(dp720
g296
F13.503282848867876
sg15
F1.0035609925220845
sg10
F0.0051224176011052868
sg12
F0.012119356143136792
ssg16
(dp721
g296
F13.503698224852071
sg12
F0.011986085433066939
sg10
F0.0050150004853353192
sg9
F0.99498499951466468
ssg18
(dp722
g296
F13.502867472883681
sg12
F0.00084136851488998937
sg10
F0.00079864935940520787
sg9
F0.99145443767611252
sssS'22.5_24.5'
p723
(dp724
g7
(dp725
g296
F23.452500432600797
sg12
F0.0016112414517640416
sg10
F0.0014950921362241205
sg9
F1.0000232325645575
ssg13
(dp726
g296
F23.435828603529217
sg15
F1.0066535299156394
sg10
F0.0028463415473200431
sg12
F0.025366873865549269
ssg16
(dp727
g296
F23.419156774457633
sg12
F0.025096552921076255
sg10
F0.0025053817222990826
sg9
F0.99749461827770092
ssg18
(dp728
g296
F23.452500432600797
sg12
F0.0013997201401110475
sg10
F0.0012868028001559117
sg9
F0.99090162467447362
sssS'2.5_4.5'
p729
(dp730
g7
(dp731
g296
F3.6648690292758088
sg12
F0.0031963009264338103
sg10
F0.002659307813076463
sg9
F1.0017667320418351
ssg13
(dp732
g296
F3.6943129676765785
sg15
F1.008717666787875
sg10
F0.0023851098124251734
sg12
F0.053478316534591702
ssg16
(dp733
g296
F3.7237569060773481
sg12
F0.052937629328188907
sg10
F2.0409007817079328e-11
sg9
F0.99999999997959099
ssg18
(dp734
g296
F3.6648690292758088
sg12
F0.0028592460352839669
sg10
F0.0023440621632711605
sg9
F0.99135767410910514
sssS'24.5_26.5'
p735
(dp736
g7
(dp737
g296
F25.452205882352942
sg12
F0.0022923092872945798
sg10
F0.0021110418539324188
sg9
F1.0010678417593279
ssg13
(dp738
g296
F25.434682822833274
sg15
F1.0119056119707923
sg10
F0.0018942498651942179
sg12
F0.034178365604727125
ssg16
(dp739
g296
F25.417159763313609
sg12
F0.033713995251239248
sg10
F1.2134515614548036e-11
sg9
F0.99999999998786548
ssg18
(dp740
g296
F25.452205882352942
sg12
F0.0020254786721749843
sg10
F0.0018499383518813472
sg9
F0.98823446392421976
sssS'18.5_20.5'
p741
(dp742
g7
(dp743
g296
F19.465467153968699
sg12
F0.0011959871602808677
sg10
F0.0011300344384521032
sg9
F1.0016004183753318
ssg13
(dp744
g296
F19.462439967312502
sg15
F1.0098518676127601
sg10
F0.0010150060272591166
sg12
F0.0090211788163303951
ssg16
(dp745
g296
F19.459412780656304
sg12
F0.0088688800873954025
sg10
F1.3083256811263766e-08
sg9
F0.99999998691674319
ssg18
(dp746
g296
F19.465467153968699
sg12
F0.001059375019327944
sg10
F0.00099529831644258517
sg9
F0.9902442318403526
sssS'14.5_16.5'
p747
(dp748
g7
(dp749
g296
F15.483739032917738
sg12
F0.00093889078124399219
sg10
F0.00089409552374551898
sg9
F1.0008781601421008
ssg13
(dp750
g296
F15.482395009719271
sg15
F0.9835959318720594
sg10
F0.012890227614521826
sg12
F0.012793816751006104
ssg16
(dp751
g296
F15.481050986520804
sg12
F0.012661628127333645
sg10
F0.012760084335371983
sg9
F0.97543023797462935
ssg18
(dp752
g296
F15.483739032917738
sg12
F0.0008249945520915293
sg10
F0.00078146806766515289
sg9
F0.99169812152243408
sssS'0.5_2.5'
p753
(dp754
g7
(dp755
g296
F1.9053254437869822
sg12
F0.011824206782466418
sg10
F0.0
sg9
F1.0
ssg13
(dp756
g296
F1.8710300688322667
sg15
F0.99999999953593943
sg10
F4.6406056775083471e-10
sg12
F0.11938331718136844
ssg16
(dp757
g296
F1.8367346938775511
sg12
F0.11885473751931304
sg10
F4.6406056775083471e-10
sg9
F0.99999999953593943
ssg18
(dp758
g296
F1.9053254437869822
sg12
F0.011221755235224874
sg10
F0.0
sg9
F1.0
sssS'8.5_10.5'
p759
(dp760
g7
(dp761
g296
F9.5333224702623429
sg12
F0.0010117099910553122
sg10
F0.00095544826105177321
sg9
F1.0011990571148848
ssg13
(dp762
g296
F9.5436964720692039
sg15
F1.0078056970407199
sg10
F0.00085683017179087899
sg12
F0.0078127345325207532
ssg16
(dp763
g296
F9.5540704738760631
sg12
F0.0076992288238071447
sg10
F1.6366019650604358e-11
sg9
F0.99999999998363398
ssg18
(dp764
g296
F9.5333224702623429
sg12
F0.00089788770559180568
sg10
F0.00084360886122837261
sg9
F0.99225475994032752
sssS'28.5_30.5'
p765
(dp766
g7
(dp767
g296
F29.45077720207254
sg12
F0.0034417845772119512
sg10
F0.0030073174609001802
sg9
F1.0011000624640702
ssg13
(dp768
g296
F29.447219586951761
sg15
F1.0120535013954191
sg10
F0.0026519998108222188
sg12
F0.071158751635031173
ssg16
(dp769
g296
F29.443661971830984
sg12
F0.070245216196634597
sg10
F9.0861584922663496e-10
sg9
F0.99999999909138415
ssg18
(dp770
g296
F29.45077720207254
sg12
F0.0030103761787066063
sg10
F0.0025892056430975004
sg9
F0.9880900542437574
sssS'10.5_12.5'
p771
(dp772
g7
(dp773
g296
F11.519308282408009
sg12
F0.00091217755231543928
sg10
F0.00086921291933117104
sg9
F1.001131266129127
ssg13
(dp774
g296
F11.520116801983423
sg15
F0.99400261436327297
sg10
F0.012136035523579693
sg12
F0.012064868452198617
ssg16
(dp775
g296
F11.52092532155884
sg12
F0.01193997388693053
sg10
F0.012013436080611048
sg9
F0.98590872362971582
ssg18
(dp776
g296
F11.519308282408009
sg12
F0.00080306322065442314
sg10
F0.00076080435806188116
sg9
F0.99185727419968428
sssS'26.5_28.5'
p777
(dp778
g7
(dp779
g296
F27.438540840602695
sg12
F0.0023841337112502424
sg10
F0.0021208546786937862
sg9
F0.99872335293875192
ssg13
(dp780
g296
F27.421533503752549
sg15
F0.99766871911333821
sg10
F0.0098496046639976742
sg12
F0.046705360166318273
ssg16
(dp781
g296
F27.404526166902404
sg12
F0.046318750148743121
sg10
F0.0096097844203609784
sg9
F0.99039021557963902
ssg18
(dp782
g296
F27.438540840602695
sg12
F0.0020667189873514128
sg10
F0.0018087596357461379
sg9
F0.99270448857996885
sssS'6.5_8.5'
p783
(dp784
g7
(dp785
g296
F7.5694581280788178
sg12
F0.0012114451547465186
sg10
F0.0011275372592236548
sg9
F1.0012738279341913
ssg13
(dp786
g296
F7.5746253844297318
sg15
F0.99071622463796449
sg10
F0.016935872585974687
sg12
F0.017556084565072634
ssg16
(dp787
g296
F7.5797926407806466
sg12
F0.017390762593179183
sg10
F0.016778949054232939
sg9
F0.98322105094576706
ssg18
(dp788
g296
F7.5694581280788178
sg12
F0.0010737165212440722
sg10
F0.00099267230436135057
sg9
F0.99243459074778317
ssssS'absetapt8-20'
p789
(dp790
S'0.9_1.2'
p791
(dp792
g7
(dp793
g9
F1.0021008199643542
sg10
F0.00088857839004889835
sg389
F1.0443044788141742
sg12
F0.0009222950668766242
ssg13
(dp794
g12
F0.012675042577754776
sg15
F0.98242885795908208
sg389
F1.0429200294510839
sg10
F0.012840909426392827
ssg16
(dp795
g9
F0.97144834230530352
sg10
F0.012674226195713153
sg389
F1.0415355800879933
sg12
F0.012507924595886786
ssg18
(dp796
g9
F0.98882309333157237
sg10
F0.00078029184784070586
sg389
F1.0443044788141742
sg12
F0.00081259292799072626
sssS'1.2_2.1'
p797
(dp798
g7
(dp799
g9
F1.0014230670109245
sg10
F0.00067075816925074258
sg389
F1.5163894829760709
sg12
F0.0006925112802518078
ssg13
(dp800
g12
F0.003845273193151583
sg15
F1.007500053113346
sg389
F1.5114698604389425
sg10
F0.00061384995591289276
ssg16
(dp801
g9
F0.99999999999901856
sg10
F9.8143715376863838e-13
sg389
F1.5065502379018141
sg12
F0.0037641841516388662
ssg18
(dp802
g9
F0.99255577893901736
sg10
F0.00060474470374470275
sg389
F1.5163894829760709
sg12
F0.00062595624172144147
sssS'0_0.9'
p803
(dp804
g7
(dp805
g9
F1.00069376247393
sg10
F0.00041681593600959358
sg389
F0.44116954528815872
sg12
F0.00042632964385951375
ssg13
(dp806
g12
F0.0055470140789264802
sg15
F1.0002269171927685
sg389
F0.43998334029288966
sg10
F0.0055170559098331089
ssg16
(dp807
g9
F0.99154005291937741
sg10
F0.005457154185193859
sg389
F0.43879713529762054
sg12
F0.0054862861889348712
ssg18
(dp808
g9
F0.99131510647826637
sg10
F0.00036181569947511903
sg389
F0.44116954528815872
sg12
F0.00037125465307532538
sssssS'Soft'
p809
(dp810
S'ptabseta1.2-2.1'
p811
(dp812
S'6.0_8.0'
p813
(dp814
g7
(dp815
g9
F0.99228785887950799
sg10
F0.000779046003611998
sg11
F6.8275690295644615
sg12
F0.00078479096892694719
ssg13
(dp816
g12
F0.014332577037384792
sg15
F0.99250278714196594
sg11
F6.8241576594101758
sg10
F0.014563917571390399
ssg16
(dp817
g9
F0.96302966126630374
sg10
F0.014120904816364662
sg11
F6.820746289255891
sg12
F0.01389608394606094
ssg18
(dp818
g9
F0.970304238680746
sg10
F0.00054945219329087752
sg11
F6.8275690295644615
sg12
F0.00055405785913608503
sssS'3.25_3.5'
p819
(dp820
g7
(dp821
g9
F0.99812701554010508
sg10
F0.0013830990086213749
sg11
F3.3713533706105201
sg12
F0.0013910048477252172
ssg13
(dp822
g12
F0.023054336101029076
sg15
F1.027480753216228
sg11
F3.3703071570435057
sg10
F0.024100793401886145
ssg16
(dp823
g9
F0.95866203067334321
sg10
F0.022466097761052628
sg11
F3.3692609434764913
sg12
F0.021488554544711033
ssg18
(dp824
g9
F0.93302188646603068
sg10
F0.00093360371109367176
sg11
F3.3713533706105201
sg12
F0.00093894296719389714
sssS'8.0_10.0'
p825
(dp826
g7
(dp827
g9
F0.99383248757913811
sg10
F0.0017312937309172511
sg11
F8.8488436188686741
sg12
F0.0017660086547236363
ssg13
(dp828
g12
F0.0051498131047619088
sg15
F1.0288857157625284
sg11
F8.8545680099190065
sg10
F0.0015585980146256223
ssg16
(dp829
g9
F0.99999999999944822
sg10
F5.517808432387028e-13
sg11
F8.8602924009693407
sg12
F0.0047592351836890871
ssg18
(dp830
g9
F0.97192524366841626
sg10
F0.0014723119700650507
sg11
F8.8488436188686741
sg12
F0.0015063403452670585
sssS'5.0_6.0'
p831
(dp832
g7
(dp833
g9
F0.99238737164685498
sg10
F0.0008592579239510566
sg11
F5.4790820802645586
sg12
F0.00086553315222227052
ssg13
(dp834
g12
F0.016257805345823613
sg15
F1.0304040633413829
sg11
F5.462660580639132
sg10
F0.005614375095946097
ssg16
(dp835
g9
F0.99461657689759142
sg10
F0.0053834231024085799
sg11
F5.4462390810137054
sg12
F0.015680557913033237
ssg18
(dp836
g9
F0.96526849250987978
sg10
F0.00060485050733820821
sg11
F5.4790820802645586
sg12
F0.00060992565942367537
sssS'2.5_2.75'
p837
(dp838
g7
(dp839
g9
F1.0005700580353458
sg10
F0.0018238177381734372
sg11
F2.621271493319373
sg12
F0.0018280106094302803
ssg13
(dp840
g12
F0.025268818135179099
sg15
F1.0825756417570516
sg11
F2.6193533020772612
sg10
F0.026124211596187576
ssg16
(dp841
g9
F0.89608427854342887
sg10
F0.021593149188438947
sg11
F2.6174351108351495
sg12
F0.020883922193288395
ssg18
(dp842
g9
F0.82773364186271381
sg10
F0.0010646784727459573
sg11
F2.621271493319373
sg12
F0.0010671343671391738
sssS'3.75_4.0'
p843
(dp844
g7
(dp845
g9
F0.99477433175861529
sg10
F0.0014216194233514746
sg11
F3.8719903619895253
sg12
F0.0014287326494460794
ssg13
(dp846
g12
F0.025043300399273709
sg15
F1.0412036499979778
sg11
F3.8712989341111443
sg10
F0.01315627216277946
ssg16
(dp847
g9
F0.98756331196922442
sg10
F0.012436688030775578
sg11
F3.870607506232763
sg12
F0.023731078431124712
ssg18
(dp848
g9
F0.94848237611455011
sg10
F0.00098018162929456427
sg11
F3.8719903619895253
sg12
F0.00098276456363833101
sssS'2.75_3.0'
p849
(dp850
g7
(dp851
g9
F1.0011529797366601
sg10
F0.0016472218455502502
sg11
F2.8713014067449247
sg12
F0.0016527966662269039
ssg13
(dp852
g12
F0.023112962334862319
sg15
F1.0335965081150729
sg11
F2.8694788065732109
sg10
F0.02399493807296349
ssg16
(dp853
g9
F0.90463014011932119
sg10
F0.020974276414257406
sg11
F2.8676562064014974
sg12
F0.020201135297165003
ssg18
(dp854
g9
F0.87522561562157142
sg10
F0.0010243930329420833
sg11
F2.8713014067449247
sg12
F0.0010279462229689522
sssS'2.0_2.5'
p855
(dp856
g7
(dp857
g9
F0.99993971213177413
sg10
F0.0016082594334719726
sg11
F2.2522793664064151
sg12
F0.0016095949223166282
ssg13
(dp858
g12
F0.01988164644969119
sg15
F1.06358769812839
sg11
F2.2401623833582129
sg10
F0.02049412960754865
ssg16
(dp859
g9
F0.78806367392356425
sg10
F0.015159010784440706
sg11
F2.2280454003100107
sg12
F0.014704342441258261
ssg18
(dp860
g9
F0.74094846650664614
sg10
F0.00083645702659353931
sg11
F2.2522793664064151
sg12
F0.00083715465597808587
sssS'4.5_5.0'
p861
(dp862
g7
(dp863
g9
F0.99397474054529644
sg10
F0.0011376713552482558
sg11
F4.7384596554774436
sg12
F0.0011468806575808488
ssg13
(dp864
g12
F0.018577211081901128
sg15
F1.013998262849616
sg11
F4.736598794825138
sg10
F0.019082472358389314
ssg16
(dp865
g9
F0.97308337562417158
sg10
F0.018294788949183394
sg11
F4.7347379341728315
sg12
F0.017809095693843938
ssg18
(dp866
g9
F0.95964994347183374
sg10
F0.00079394283957388834
sg11
F4.7384596554774436
sg12
F0.00080126743717883202
sssS'4.0_4.5'
p867
(dp868
g7
(dp869
g9
F0.99431664636666595
sg10
F0.0010390122415825126
sg11
F4.2372352242237454
sg12
F0.001045067599365398
ssg13
(dp870
g12
F0.017973652437705035
sg15
F1.0299904870894334
sg11
F4.2360210261032734
sg10
F0.016823559017127346
ssg16
(dp871
g9
F0.9839456306921871
sg10
F0.016054369307812899
sg11
F4.2348068279828022
sg12
F0.017153950036052953
ssg18
(dp872
g9
F0.95529584304476367
sg10
F0.00071974228129601707
sg11
F4.2372352242237454
sg12
F0.00072409670810384089
sssS'3.0_3.25'
p873
(dp874
g7
(dp875
g9
F0.99974788457729491
sg10
F0.0014591730825346814
sg11
F3.1211884874725095
sg12
F0.0014659291875702377
ssg13
(dp876
g12
F0.025077717042602327
sg15
F1.0680959001646058
sg11
F3.1197699364975922
sg10
F0.02531482180380756
ssg16
(dp877
g9
F0.9768699235100371
sg10
F0.023130076489962903
sg11
F3.1183513855226752
sg12
F0.022912789388486225
ssg18
(dp878
g9
F0.91459008817418952
sg10
F0.00095771517760311552
sg11
F3.1211884874725095
sg12
F0.00096230661896480173
sssS'3.5_3.75'
p879
(dp880
g7
(dp881
g9
F0.99637803696882854
sg10
F0.0013807638700302609
sg11
F3.6217188438220562
sg12
F0.0013903178230771343
ssg13
(dp882
g12
F0.024032834504612428
sg15
F1.0203825167158675
sg11
F3.6210764559010009
sg10
F0.024812335430490447
ssg16
(dp883
g9
F0.96233314274801951
sg10
F0.023380822405789526
sg11
F3.620434067979946
sg12
F0.022644709251828963
ssg18
(dp884
g9
F0.94311018366457156
sg10
F0.00094662645719021938
sg11
F3.6217188438220562
sg12
F0.00095373228551372301
sssS'10.0_20.0'
p885
(dp886
g7
(dp887
g9
F0.99418108209172107
sg10
F0.0020526033299647392
sg11
F12.060325105822352
sg12
F0.0021081913576563847
ssg13
(dp888
g12
F0.019530607444987847
sg15
F1.0108175382868196
sg11
F12.129573103229692
sg10
F0.015222082288575101
ssg16
(dp889
g9
F0.98527216461671507
sg10
F0.014727835383284926
sg11
F12.198821100637032
sg12
F0.018946430474872163
ssg18
(dp890
g9
F0.97472800708088225
sg10
F0.0017804633427700135
sg11
F12.060325105822352
sg12
F0.0018352178689349352
ssssS'etapt8-20'
p891
(dp892
S'-0.2_0.2'
p893
(dp894
g7
(dp895
g9
F0.98922444449832436
sg97
F-0.00073556552934971986
sg10
F0.0016289037259694214
sg12
F0.00093610836864883396
ssg13
(dp896
g12
F0.011005311379924039
sg97
F-0.00062320724343685517
sg15
F1.0131037475729974
sg10
F0.011117778517801857
ssg16
(dp897
g9
F0.98520890702659936
sg97
F-0.00051084895752399049
sg10
F0.010728762531662371
sg12
F0.010702290680571311
ssg18
(dp898
g9
F0.97246595858200791
sg97
F-0.00073556552934971986
sg10
F0.0013190061731522681
sg12
F-0.0
sssS'-2.1_-1.6'
p899
(dp900
g7
(dp901
g9
F0.99520162481229235
sg97
F-1.782863671931699
sg10
F0.0025183828787458543
sg12
F0.0026367381576494348
ssg13
(dp902
g12
F0.033997849583449126
sg97
F-1.7843031214625542
sg15
F1.0018664708303426
sg10
F0.014779131149382976
ssg16
(dp903
g9
F0.98562866958361595
sg97
F-1.7857425709934094
sg10
F0.014371330416384054
sg12
F0.03336602299369433
ssg18
(dp904
g9
F0.98379244967318957
sg97
F-1.782863671931699
sg10
F0.0022015113827579488
sg12
F0.0023192018821781664
sssS'-1.2_-0.9'
p905
(dp906
g7
(dp907
g9
F0.99502405188667986
sg97
F-1.0450261665734764
sg10
F0.0023103394284217462
sg12
F0.0023733150345048933
ssg13
(dp908
g12
F0.018262416694688092
sg97
F-1.0434328741002683
sg15
F0.99721784717644513
sg10
F0.018571372419694417
ssg16
(dp909
g9
F0.96327758305029731
sg97
F-1.0418395816270605
sg10
F0.017838072301318487
sg12
F0.017531167544707071
ssg18
(dp910
g9
F0.96596504542889261
sg97
F-1.0450261665734764
sg10
F0.0019083435083709001
sg12
F0.0019696517090057814
sssS'1.6_2.1'
p911
(dp912
g7
(dp913
g9
F0.99554271015831819
sg97
F1.7913619792337685
sg10
F0.0023878058894632966
sg12
F0.0025138621377413257
ssg13
(dp914
g12
F0.013569682280675212
sg97
F1.7894064970059067
sg15
F1.0160340253875306
sg10
F0.0021724628667953564
ssg16
(dp915
g9
F1.0
sg97
F1.7874510147780449
sg10
F0.0
sg12
F0.013161982129967591
ssg18
(dp916
g9
F0.98421900744769353
sg97
F1.7913619792337685
sg10
F0.0021044366557101892
sg12
F0.0022297838216460467
sssS'0.9_1.2'
p917
(dp918
g7
(dp919
g9
F0.99098707817460541
sg97
F1.0435391900322837
sg10
F0.0022762756908815129
sg12
F0.0023386125392806083
ssg13
(dp920
g12
F0.018576357542958003
sg97
F1.0423764964831177
sg15
F0.9989777648585112
sg10
F0.018903775655419203
ssg16
(dp921
g9
F0.96822666765697718
sg97
F1.0412138029339519
sg10
F0.018225854383356152
sg12
F0.017900350024294416
ssg18
(dp922
g9
F0.96921743577957475
sg97
F1.0435391900322837
sg10
F0.0018751799240222849
sg12
F0.0019360307806985555
sssS'-0.3_-0.2'
p923
(dp924
g7
(dp925
g9
F0.99311605704973394
sg97
F-0.24998263254006087
sg10
F0.0031907513086598719
sg12
F0.0033370816961646949
ssg13
(dp926
g12
F0.021908474453072077
sg97
F-0.24976214455585061
sg15
F0.99673590884827346
sg10
F0.022044441444038831
ssg16
(dp927
g9
F0.96707043447878749
sg97
F-0.24954165657164032
sg10
F0.021230308011818324
sg12
F0.021079847498488933
ssg18
(dp928
g9
F0.97023737771847274
sg97
F-0.24998263254006087
sg10
F0.0026037164889399652
sg12
F0.0027430814633179501
sssS'-0.6_-0.3'
p929
(dp930
g7
(dp931
g9
F0.9942450531231829
sg97
F-0.44988385862280506
sg10
F0.0018280980273040238
sg12
F0.0018805817853924452
ssg13
(dp932
g12
F0.013480514907479648
sg97
F-0.44788974184188957
sg15
F1.0128655907015491
sg10
F0.013571078605353983
ssg16
(dp933
g9
F0.98485112257308982
sg97
F-0.44589562506097408
sg10
F0.013106491519840606
sg12
F0.013011654960625691
ssg18
(dp934
g9
F0.97234137640211926
sg97
F-0.44988385862280506
sg10
F0.0015125130019848386
sg12
F0.0015634413063635691
sssS'1.2_1.6'
p935
(dp936
g7
(dp937
g9
F0.99429537622678033
sg97
F1.3834406573234328
sg10
F0.0026687511796187422
sg12
F0.0027350282765604941
ssg13
(dp938
g12
F0.020404908129957534
sg97
F1.3816247907660277
sg15
F1.0113437551231135
sg10
F0.020863213851760869
ssg16
(dp939
g9
F0.97535535631961134
sg97
F1.3798089242086229
sg10
F0.019991869613621642
sg12
F0.019539300277987545
ssg18
(dp940
g9
F0.96441526570842262
sg97
F1.3834406573234328
sg10
F0.0022486553154538367
sg12
F0.0023128038324407218
sssS'0.2_0.3'
p941
(dp942
g7
(dp943
g9
F0.99525884609649118
sg97
F0.24963804002132209
sg10
F0.0034288818133139934
sg12
F0.0035259854395355379
ssg13
(dp944
g12
F0.02229641432931305
sg97
F0.24960469947937677
sg15
F1.0044161295363379
sg10
F0.022407248565480535
ssg16
(dp945
g9
F0.97054906776488803
sg97
F0.24957135893743146
sg10
F0.021464786402401917
sg12
F0.021336264943783812
ssg18
(dp946
g9
F0.966281841982084
sg97
F0.24963804002132209
sg10
F0.0028264985893643193
sg12
F0.002975915091134481
sssS'0.6_0.9'
p947
(dp948
g7
(dp949
g9
F0.99369319365264297
sg97
F0.74816662927019206
sg10
F0.0019310352027402087
sg12
F0.0019866625265114236
ssg13
(dp950
g12
F0.015360145291197573
sg97
F0.74857413058599431
sg15
F1.0090103968971331
sg10
F0.015465594752071328
ssg16
(dp951
g9
F0.98225653624225018
sg97
F0.74898163190179667
sg10
F0.014968456631238325
sg12
F0.014859152558276035
ssg18
(dp952
g9
F0.97348504957217963
sg97
F0.74816662927019206
sg10
F0.0016023942970333856
sg12
F0.0016565878663275708
sssS'-0.9_-0.6'
p953
(dp954
g7
(dp955
g9
F0.99440079844858409
sg97
F-0.74935420970546041
sg10
F0.001841062549620379
sg12
F0.001895293340936548
ssg13
(dp956
g12
F0.0050562827701262636
sg97
F-0.74781350720477624
sg15
F1.026386158066581
sg10
F0.001597933732818996
ssg16
(dp957
g9
F0.99999999999942069
sg97
F-0.74627280470409196
sg10
F5.7931437424940668e-13
sg12
F0.0046554913570835046
ssg18
(dp958
g9
F0.97429217272681834
sg97
F-0.74935420970546041
sg10
F0.0015168309862580033
sg12
F0.0015694270347935942
sssS'-1.6_-1.2'
p959
(dp960
g7
(dp961
g9
F0.98932444494034444
sg97
F-1.3803161754781057
sg10
F0.0024525507265789402
sg12
F0.0024612262146492848
ssg13
(dp962
g12
F0.005830692967649675
sg97
F-1.3784768349887588
sg15
F1.0301628628550319
sg10
F0.0021943285678525841
ssg16
(dp963
g9
F0.99999999999996902
sg97
F-1.376637494499412
sg10
F3.0975222387041867e-14
sg12
F0.0052438578737506623
ssg18
(dp964
g9
F0.97072029681649707
sg97
F-1.3803161754781057
sg10
F0.0020677111896612137
sg12
F0.0020677111896612137
sssS'0.3_0.6'
p965
(dp966
g7
(dp967
g9
F0.99192441290984124
sg97
F0.44825130646268957
sg10
F0.0017834692696891852
sg12
F0.0018364791882097937
ssg13
(dp968
g12
F0.013688375740822821
sg97
F0.44807675049292151
sg15
F1.0155222976767659
sg10
F0.010282782763448763
ssg16
(dp969
g9
F0.99008631105044853
sg97
F0.44790219452315344
sg10
F0.0099136889495514691
sg12
F0.013255934160469498
ssg18
(dp970
g9
F0.97495280341504276
sg97
F0.44825130646268957
sg10
F0.00146850205751293
sg12
F0.0015201402051530696
ssssS'ptabseta<0.9'
p971
(dp972
S'6.0_8.0'
p973
(dp974
g7
(dp975
g9
F0.99227928921696551
sg10
F0.00053485173919674443
sg11
F6.8333993111375566
sg12
F0.00053777081493407023
ssg13
(dp976
g12
F0.0085636933642557912
sg15
F1.0199329125508678
sg11
F6.8288321639309677
sg10
F0.0085390899219837287
ssg16
(dp977
g9
F0.9874667420197496
sg10
F0.0082586628357665514
sg11
F6.8242650167243788
sg12
F0.0082824110826796669
ssg18
(dp978
g9
F0.96816832741486913
sg10
F0.00036991599012153089
sg11
F6.8333993111375566
sg12
F0.00037199361121969979
sssS'5.0_6.0'
p979
(dp980
g7
(dp981
g9
F0.99204413981392714
sg10
F0.00061201163799217133
sg11
F5.4786979031894729
sg12
F0.00061547111884693417
ssg13
(dp982
g12
F0.0091117652384921002
sg15
F1.0316216616331337
sg11
F5.4603773666257513
sg10
F0.0091617589568302529
ssg16
(dp983
g9
F0.99026636662529688
sg10
F0.0087836938684953871
sg11
F5.4420568300620307
sg12
F0.0087355009539050038
ssg18
(dp984
g9
F0.95991234330775077
sg10
F0.00042219222332094117
sg11
F5.4786979031894729
sg12
F0.00042498347979867278
sssS'8.0_10.0'
p985
(dp986
g7
(dp987
g9
F0.99162466502249313
sg10
F0.0010669755001675649
sg11
F8.8709944080797243
sg12
F0.00090770893754532102
ssg13
(dp988
g12
F0.0079761413140722985
sg15
F1.0167443992053307
sg11
F8.8724443658843519
sg10
F0.0080541214874436905
ssg16
(dp989
g9
F0.98797349968386505
sg10
F0.0077750545990680044
sg11
F8.8738943236889813
sg12
F0.0076974955486992193
ssg18
(dp990
g9
F0.97170291811397991
sg10
F0.00087867472617824945
sg11
F8.8709944080797243
sg12
F0.00088947305822704775
sssS'3.5_3.75'
p991
(dp992
g7
(dp993
g9
F1.0100749822955275
sg10
F0.0018712379666766647
sg11
F3.6225595032540636
sg12
F0.0018712379666766647
ssg13
(dp994
g12
F0.014841123767750456
sg15
F1.0617598855602586
sg11
F3.6215449662678223
sg10
F0.015062655269687588
ssg16
(dp995
g9
F0.81185617052813219
sg10
F0.011465657121786937
sg11
F3.620530429281581
sg12
F0.011295491052817269
ssg18
(dp996
g9
F0.76463255164301125
sg10
F0.0010270422149882595
sg11
F3.6225595032540636
sg12
F0.0010270422149882595
sssS'15.0_20.0'
p997
(dp998
g7
(dp999
g9
F0.99418379766405496
sg10
F0.0026958457376882058
sg11
F16.84005543574515
sg12
F0.002835319703681621
ssg13
(dp1000
g12
F0.020481610999806332
sg15
F0.99688592880775662
sg11
F16.852667135059811
sg10
F0.020693132425502893
ssg16
(dp1001
g9
F0.97405216639458114
sg10
F0.020095553603645039
sg11
F16.865278834374472
sg12
F0.019871869207715203
ssg18
(dp1002
g9
F0.97709490950435629
sg10
F0.0022392204304005131
sg11
F16.84005543574515
sg12
F0.0023755368906327097
sssS'4.5_5.0'
p1003
(dp1004
g7
(dp1005
g9
F0.99532614517173768
sg10
F0.00087767855255974135
sg11
F4.7367799514763771
sg12
F0.00088212063303940412
ssg13
(dp1006
g12
F0.011373438869757058
sg15
F1.0349261474633362
sg11
F4.7339186657740946
sg10
F0.011477321354162906
ssg16
(dp1007
g9
F0.97401757570473591
sg10
F0.01078394632749426
sg11
F4.7310573800718112
sg12
F0.010685831286222511
ssg18
(dp1008
g9
F0.94114693893096546
sg10
F0.00060061403376027438
sg11
F4.7367799514763771
sg12
F0.00060363948999342127
sssS'4.0_4.5'
p1009
(dp1010
g7
(dp1011
g9
F0.99999804222349198
sg10
F0.0009420449419228616
sg11
F4.2331643691985592
sg12
F0.0009420449419228616
ssg13
(dp1012
g12
F0.010418222999562139
sg15
F1.042571146713805
sg11
F4.2318601877852098
sg10
F0.010505843782882909
ssg16
(dp1013
g9
F0.94370998027757103
sg10
F0.0094870081043851376
sg11
F4.2305560063718604
sg12
F0.0094075051600067666
ssg18
(dp1014
g9
F0.90517561631372079
sg10
F0.00062882813875775323
sg11
F4.2331643691985592
sg12
F0.00062882813875775323
sssS'3.75_4.0'
p1015
(dp1016
g7
(dp1017
g9
F1.0061842881710958
sg10
F0.0015144718858554433
sg11
F3.8722193334507664
sg12
F0.0015170143942675304
ssg13
(dp1018
g12
F0.014466629995667704
sg15
F1.0383918130655103
sg11
F3.8712110515770828
sg10
F0.014675277873985496
ssg16
(dp1019
g9
F0.88176734582439087
sg10
F0.012423769076758301
sg11
F3.8702027697033987
sg12
F0.012245801120960156
ssg18
(dp1020
g9
F0.84916631153057986
sg10
F0.00093627606021833953
sg11
F3.8722193334507664
sg12
F0.0009392031510592826
sssS'10.0_15.0'
p1021
(dp1022
g7
(dp1023
g9
F0.99366369177389668
sg10
F0.0011911213147461353
sg11
F11.752056235989501
sg12
F0.0012135729280771433
ssg13
(dp1024
g12
F0.0086875296607718134
sg15
F1.0177515296591249
sg11
F11.777088920022919
sg10
F0.0087668140642972285
ssg16
(dp1025
g9
F0.9910811894202427
sg10
F0.0084789827745726885
sg11
F11.802121604056337
sg12
F0.0083986089291060752
ssg18
(dp1026
g9
F0.97379484141103201
sg10
F0.00097692031054498083
sg11
F11.752056235989501
sg12
F0.00099853961929905811
ssssS'ptabseta0.9-1.2'
p1027
(dp1028
S'6.0_8.0'
p1029
(dp1030
g7
(dp1031
g9
F0.98815185144472928
sg10
F0.0010879715489037977
sg11
F6.8270575640924447
sg12
F0.0010989968047464852
ssg13
(dp1032
g12
F0.016416813193773038
sg15
F1.0361644763116131
sg11
F6.8262896156111061
sg10
F0.00080450805548805068
ssg16
(dp1033
g9
F0.99999998465670437
sg10
F1.5343295634018261e-08
sg11
F6.8255216671297685
sg12
F0.01582435222043695
ssg18
(dp1034
g9
F0.96509773063863191
sg10
F0.00074932977942288872
sg11
F6.8270575640924447
sg12
F0.00075795460309908079
sssS'3.25_3.5'
p1035
(dp1036
g7
(dp1037
g9
F1.0033569122253603
sg10
F0.0056806294589404512
sg11
F3.3718466145473598
sg12
F0.0056819777626980449
ssg13
(dp1038
g12
F0.037750730515744547
sg15
F1.1859487852882269
sg11
F3.3709715715604593
sg10
F0.039126433833265015
ssg16
(dp1039
g9
F0.61906542648038587
sg10
F0.020271596778012775
sg11
F3.3700965285735589
sg12
F0.019547873528763891
ssg18
(dp1040
g9
F0.52200013538521517
sg10
F0.0020999561448209508
sg11
F3.3718466145473598
sg12
F0.0021000081688200027
sssS'8.0_10.0'
p1041
(dp1042
g7
(dp1043
g9
F0.99220708490693466
sg10
F0.0022086832781273743
sg11
F8.8794732639384257
sg12
F0.0022635367145707372
ssg13
(dp1044
g12
F0.018727803732473042
sg15
F1.0058964585177432
sg11
F8.8805883929129958
sg10
F0.019056172089037881
ssg16
(dp1045
g9
F0.97275929305358955
sg10
F0.018336369858136081
sg11
F8.881703521887566
sg12
F0.018011646132811962
ssg18
(dp1046
g9
F0.96705708109064858
sg10
F0.0018286991220012251
sg11
F8.8794732639384257
sg12
F0.0018819641226653081
sssS'5.0_6.0'
p1047
(dp1048
g7
(dp1049
g9
F0.9904907720854198
sg10
F0.0012602277636207238
sg11
F5.4781880311937838
sg12
F0.0012716134931808551
ssg13
(dp1050
g12
F0.019429460859343512
sg15
F1.0301873794855414
sg11
F5.4630673387749376
sg10
F0.017730324186921925
ssg16
(dp1051
g9
F0.98310377376831359
sg10
F0.016896226231686406
sg11
F5.4479466463560922
sg12
F0.018519350153300033
ssg18
(dp1052
g9
F0.95429607598110877
sg10
F0.00086996438460924287
sg11
F5.4781880311937838
sg12
F0.00087865211876241966
sssS'2.5_2.75'
p1053
(dp1054
g7
(dp1055
g9
F0.99922468059286274
sg10
F0.022110948515985992
sg11
F2.623878012207594
sg12
F0.021921093310018382
ssg13
(dp1056
g12
F0.11615574885389254
sg15
F1.2812748844376858
sg11
F2.6220842641035866
sg10
F0.12417596225913903
ssg16
(dp1057
g9
F0.14866820899592825
sg10
F0.014219475087536402
sg11
F2.6202905159995793
sg12
F0.013279107210301776
ssg18
(dp1058
g9
F0.11603147053114554
sg10
F0.001814695277916845
sg11
F2.623878012207594
sg12
F0.0017992072321977286
sssS'3.75_4.0'
p1059
(dp1060
g7
(dp1061
g9
F1.0019915944578204
sg10
F0.0028544850912077631
sg11
F3.8709801660823153
sg12
F0.0028715477362102081
ssg13
(dp1062
g12
F0.031021035396190607
sg15
F1.0640331056842631
sg11
F3.8698088503523511
sg10
F0.031020084538302788
ssg16
(dp1063
g9
F0.91580581854438003
sg10
F0.026631955052079562
sg11
F3.8686375346223874
sg12
F0.026631955052079562
ssg18
(dp1064
g9
F0.8606929743557552
sg10
F0.0017740530416255258
sg11
F3.8709801660823153
sg12
F0.0017848987860819773
sssS'2.75_3.0'
p1065
(dp1066
g7
(dp1067
g9
F0.99979426544845873
sg10
F0.0142291496182232
sg11
F2.8800402180870082
sg12
F0.014157994962971893
ssg13
(dp1068
g12
F0.083882989509383055
sg15
F1.4943150753766883
sg11
F2.878956522124696
sg10
F0.088125700487985376
ssg16
(dp1069
g9
F0.24842617968641401
sg10
F0.014435713019168269
sg11
F2.8778728261623834
sg12
F0.013721595176008657
ssg18
(dp1070
g9
F0.16624752288187317
sg10
F0.0016733547952547747
sg11
F2.8800402180870082
sg12
F0.0016649994020364414
sssS'4.5_5.0'
p1071
(dp1072
g7
(dp1073
g9
F0.99236425453462607
sg10
F0.0017469753477215761
sg11
F4.7360010579485818
sg12
F0.0017627668053712792
ssg13
(dp1074
g12
F0.024706104908676401
sg15
F1.0138842787605569
sg11
F4.7339934411748672
sg10
F0.025472390956436986
ssg16
(dp1075
g9
F0.95256242523428147
sg10
F0.023901451261334434
sg11
F4.7319858244011526
sg12
F0.023179937969394979
ssg18
(dp1076
g9
F0.9395178968538308
sg10
F0.0011877137212120252
sg11
F4.7360010579485818
sg12
F0.0011996585283071304
sssS'4.0_4.5'
p1077
(dp1078
g7
(dp1079
g9
F0.99748550558183657
sg10
F0.0018016932110405219
sg11
F4.2358680869827721
sg12
F0.0018130368006056335
ssg13
(dp1080
g12
F0.023032318621869375
sg15
F1.0446020588303908
sg11
F4.233557353912822
sg10
F0.023712978095721902
ssg16
(dp1081
g9
F0.95307131680826229
sg10
F0.021598978546678263
sg11
F4.2312466208428718
sg12
F0.020976404998605064
ssg18
(dp1082
g9
F0.91237740606732798
sg10
F0.0011977283163678923
sg11
F4.2358680869827721
sg12
F0.0012054611272408206
sssS'3.0_3.25'
p1083
(dp1084
g7
(dp1085
g9
F0.99940610424764231
sg10
F0.010067257044429815
sg11
F3.1287289861879137
sg12
F0.010039079449441936
ssg13
(dp1086
g12
F0.061499621593698726
sg15
F1.5814105595281827
sg11
F3.1279082852633939
sg10
F0.063756365531772288
ssg16
(dp1087
g9
F0.3921904156016866
sg10
F0.015562901973231947
sg11
F3.1270875843388737
sg12
F0.014995384568136655
ssg18
(dp1088
g9
F0.24800037740907555
sg10
F0.0017663727015352453
sg11
F3.1287289861879137
sg12
F0.001761490797413656
sssS'3.5_3.75'
p1089
(dp1090
g7
(dp1091
g9
F1.0054937419842369
sg10
F0.0037130384872968453
sg11
F3.6208680456044275
sg12
F0.0037375291049926863
ssg13
(dp1092
g12
F0.032106557116384951
sg15
F1.1161137864234871
sg11
F3.6205610393645902
sg10
F0.033319199693673619
ssg16
(dp1093
g9
F0.84008229890948483
sg10
F0.024980450525966945
sg11
F3.6202540331247528
sg12
F0.024061949250626415
ssg18
(dp1094
g9
F0.75268517343690644
sg10
F0.0019886997413085753
sg11
F3.6208680456044275
sg12
F0.0020083260828111099
sssS'10.0_20.0'
p1095
(dp1096
g7
(dp1097
g9
F0.99423286384970233
sg10
F0.0024010538057708873
sg11
F12.421115501672114
sg12
F0.0024721369552547887
ssg13
(dp1098
g12
F0.018008079150879323
sg15
F0.99006523355936216
sg11
F12.488853825664464
sg10
F0.018302039576961186
ssg16
(dp1099
g9
F0.95849895969559151
sg10
F0.017610103426608771
sg11
F12.556592149656815
sg12
F0.017315886651879255
ssg18
(dp1100
g9
F0.96811697573675282
sg10
F0.001976686300424539
sg11
F12.421115501672114
sg12
F0.0020456338601562221
ssssS'vtxpt8-20_abseta<2.1'
p1101
(dp1102
S'4.5_6.5'
p1103
(dp1104
g7
(dp1105
g296
F5.6153651115618661
sg12
F0.0035563239910457924
sg10
F0.0033968935387946055
sg9
F0.99424729641580434
ssg13
(dp1106
g296
F5.6298601550669662
sg15
F0.99775648332528932
sg10
F0.029112773363454882
sg12
F0.028364833775343136
ssg16
(dp1107
g296
F5.6443551985720664
sg12
F0.027375578637608252
sg10
F0.028121956223041745
sg9
F0.96872181876930785
ssg18
(dp1108
g296
F5.6153651115618661
sg12
F0.0030062889659125441
sg10
F0.0028523316144330917
sg9
F0.97090004921920858
sssS'20.5_22.5'
p1109
(dp1110
g7
(dp1111
g296
F21.456681350954479
sg12
F0.0024422498262074302
sg10
F0.0023637445574105848
sg9
F0.99149074012760063
ssg13
(dp1112
g296
F21.451568059340321
sg15
F1.0131843397084881
sg10
F0.015420672988086654
sg12
F0.02020102572752289
ssg16
(dp1113
g296
F21.446454767726163
sg12
F0.019533654828689344
sg10
F0.014862325442674074
sg9
F0.98513767455732593
ssg18
(dp1114
g296
F21.456681350954479
sg12
F0.0020317789523522545
sg10
F0.0019554797787240488
sg9
F0.97231829978813944
sssS'16.5_18.5'
p1115
(dp1116
g7
(dp1117
g296
F17.487761562813681
sg12
F0.0018443033803902896
sg10
F0.001795482813102438
sg9
F0.9919598389876092
ssg13
(dp1118
g296
F17.477165399601944
sg15
F1.0111487012302638
sg10
F0.014460709819607422
sg12
F0.01431514146049968
ssg16
(dp1119
g296
F17.466569236390207
sg12
F0.013867221031904173
sg10
F0.01401529126193359
sg9
F0.98566069777512877
ssg18
(dp1120
g296
F17.487761562813681
sg12
F0.0015393310911079455
sg10
F0.0014914956441724322
sg9
F0.97479302161578829
sssS'12.5_14.5'
p1121
(dp1122
g7
(dp1123
g296
F13.502867472883681
sg12
F0.001758829539312737
sg10
F0.0017169961294306484
sg9
F0.99346142495667533
ssg13
(dp1124
g296
F13.503282848867876
sg15
F1.0160571582024402
sg10
F0.012595418131621591
sg12
F0.012560733526228203
ssg16
(dp1125
g296
F13.503698224852071
sg12
F0.012109685784025506
sg10
F0.01214867253729696
sg9
F0.98703609900000222
ssg18
(dp1126
g296
F13.502867472883681
sg12
F0.0014741757310296145
sg10
F0.0014334140850157202
sg9
F0.97143757221908589
sssS'22.5_24.5'
p1127
(dp1128
g7
(dp1129
g296
F23.452500432600797
sg12
F0.0028940054716105291
sg10
F0.0027842158404555698
sg9
F0.98931234663933454
ssg13
(dp1130
g296
F23.435828603529217
sg15
F1.0110080788173641
sg10
F0.017040231380240311
sg12
F0.026096318700451215
ssg16
(dp1131
g296
F23.419156774457633
sg12
F0.025271895556541194
sg10
F0.016414729947373363
sg9
F0.98358527005262664
ssg18
(dp1132
g296
F23.452500432600797
sg12
F0.0024037706215698216
sg10
F0.0022958612781622404
sg9
F0.97287577682186721
sssS'2.5_4.5'
p1133
(dp1134
g7
(dp1135
g296
F3.6648690292758088
sg12
F0.0068377410252278073
sg10
F0.0063333481591980314
sg9
F0.99895872676398212
ssg13
(dp1136
g296
F3.6943129676765785
sg15
F1.0345020911138005
sg10
F0.0057466928193375599
sg12
F0.050086481097374833
ssg16
(dp1137
g296
F3.7237569060773481
sg12
F0.04803694762427381
sg10
F1.7688073228327994e-12
sg9
F0.99999999999823119
ssg18
(dp1138
g296
F3.6648690292758088
sg12
F0.005845093669888916
sg10
F0.0053697644759334133
sg9
F0.9666486018617686
sssS'24.5_26.5'
p1139
(dp1140
g7
(dp1141
g296
F25.452205882352942
sg12
F0.0038008249063323004
sg10
F0.0036326409560959025
sg9
F0.99155584651203421
ssg13
(dp1142
g296
F25.434682822833274
sg15
F1.0313714998517163
sg10
F0.0032065672496044031
sg12
F0.029991047978007144
ssg16
(dp1143
g296
F25.417159763313609
sg12
F0.028893412813345912
sg10
F3.9196423884391152e-12
sg9
F0.99999999999608036
ssg18
(dp1144
g296
F25.452205882352942
sg12
F0.0031786112272112047
sg10
F0.0030144639884139473
sg9
F0.96958273535758321
sssS'18.5_20.5'
p1145
(dp1146
g7
(dp1147
g296
F19.465467153968699
sg12
F0.0021473276238515864
sg10
F0.0020865463571491149
sg9
F0.99490717822427011
ssg13
(dp1148
g296
F19.462439967312502
sg15
F1.0303407488908796
sg10
F0.0018466196623540059
sg12
F0.011371106887919213
ssg16
(dp1149
g296
F19.459412780656304
sg12
F0.010879597881096601
sg10
F5.6214375687702045e-07
sg9
F0.99999943785624312
ssg18
(dp1150
g296
F19.465467153968699
sg12
F0.0017983311173289957
sg10
F0.001739463971554408
sg9
F0.97055215852881904
sssS'14.5_16.5'
p1151
(dp1152
g7
(dp1153
g296
F15.483739032917738
sg12
F0.0017955523623691277
sg10
F0.0017538060386726815
sg9
F0.99338609815429268
ssg13
(dp1154
g296
F15.482395009719271
sg15
F0.99785707462505546
sg10
F0.013261961427101199
sg12
F0.013143470545115887
ssg16
(dp1155
g296
F15.481050986520804
sg12
F0.012671544496155785
sg10
F0.01279203034661063
sg9
F0.96868718077640803
ssg18
(dp1156
g296
F15.483739032917738
sg12
F0.0014966969793871936
sg10
F0.0014560696084141666
sg9
F0.97076746300605421
sssS'0.5_2.5'
p1157
(dp1158
g7
(dp1159
g296
F1.9053254437869822
sg12
F0.015446957466968966
sg10
F0.011527050927633363
sg9
F0.98850263335341748
ssg13
(dp1160
g296
F1.8710300688322667
sg15
F1.0186817709288314
sg10
F0.0089448669274684485
sg12
F0.1217731038550057
ssg16
(dp1161
g296
F1.8367346938775511
sg12
F0.11885473751931304
sg10
F4.6406056775083471e-10
sg9
F0.99999999953593943
ssg18
(dp1162
g296
F1.9053254437869822
sg12
F0.012545915698193875
sg10
F0.0086197925617011069
sg9
F0.98166083665573201
sssS'8.5_10.5'
p1163
(dp1164
g7
(dp1165
g296
F9.5333224702623429
sg12
F0.0018997592121987035
sg10
F0.0018473827386918528
sg9
F0.99443607140580825
ssg13
(dp1166
g296
F9.5436964720692039
sg15
F1.0274615630697703
sg10
F0.0016245404883688383
sg12
F0.011504542844597737
ssg16
(dp1167
g296
F9.5540704738760631
sg12
F0.011077264543118737
sg10
F8.4376949871511897e-13
sg9
F0.99999999999915623
ssg18
(dp1168
g296
F9.5333224702623429
sg12
F0.0015898141300065471
sg10
F0.001538860923128587
sg9
F0.97327241810528986
sssS'28.5_30.5'
p1169
(dp1170
g7
(dp1171
g296
F29.45077720207254
sg12
F0.0054792751203816877
sg10
F0.0050606336817206688
sg9
F0.98877505689475487
ssg13
(dp1172
g296
F29.447219586951761
sg15
F1.0286012978968198
sg10
F0.0042685641472094121
sg12
F0.074107914814734582
ssg16
(dp1173
g296
F29.443661971830984
sg12
F0.07190127988817252
sg10
F6.2414512203012862e-07
sg9
F0.99999937585487797
ssg18
(dp1174
g296
F29.45077720207254
sg12
F0.0044560539693228266
sg10
F0.0040344784530204547
sg9
F0.97219338328619254
sssS'10.5_12.5'
p1175
(dp1176
g7
(dp1177
g296
F11.519308282408009
sg12
F0.0017359630834853075
sg10
F0.0016945029855434826
sg9
F0.99308280433355967
ssg13
(dp1178
g296
F11.520116801983423
sg15
F1.0112272707502818
sg10
F0.012517181459029794
sg12
F0.012399640677137462
ssg16
(dp1179
g296
F11.52092532155884
sg12
F0.011967840916594853
sg10
F0.012087837908364421
sg9
F0.98325541382455062
ssg18
(dp1180
g296
F11.519308282408009
sg12
F0.0014444694320420491
sg10
F0.0014040793595828536
sg9
F0.97233870393449995
sssS'26.5_28.5'
p1181
(dp1182
g7
(dp1183
g296
F27.438540840602695
sg12
F0.0042963525771673979
sg10
F0.0040481789937357026
sg9
F0.98805338057007186
ssg13
(dp1184
g296
F27.421533503752549
sg15
F1.0139370141670001
sg10
F0.011246750640059557
sg12
F0.048000679779934254
ssg16
(dp1185
g296
F27.404526166902404
sg12
F0.046706934661474908
sg10
F0.010449745801994315
sg9
F0.98955025419800569
ssg18
(dp1186
g296
F27.438540840602695
sg12
F0.0035597733599588609
sg10
F0.0033125309950469595
sg9
F0.97594844686774807
sssS'6.5_8.5'
p1187
(dp1188
g7
(dp1189
g296
F7.5694581280788178
sg12
F0.0022858766074403997
sg10
F0.0022042296725068235
sg9
F0.99389027461362855
ssg13
(dp1190
g296
F7.5746253844297318
sg15
F1.0027833132465864
sg10
F0.018246968357688353
sg12
F0.017997501097471946
ssg16
(dp1191
g296
F7.5797926407806466
sg12
F0.017421319160736175
sg10
F0.017674175186045783
sg9
F0.97650491725905197
ssg18
(dp1192
g296
F7.5694581280788178
sg12
F0.0019061598931188221
sg10
F0.0018262337005786862
sg9
F0.97379454201081961
ssssS'absetapt8-20'
p1193
(dp1194
S'0.9_1.2'
p1195
(dp1196
g7
(dp1197
g9
F0.99304356473410049
sg10
F0.0016290353837373219
sg389
F1.0443044788141742
sg12
F0.0016584326689477104
ssg13
(dp1198
g12
F0.01304461462776361
sg15
F0.99821147258160492
sg389
F1.0429200294510839
sg10
F0.013208512643884599
ssg16
(dp1199
g9
F0.96582008139927722
sg10
F0.012709132810627181
sg389
F1.0415355800879933
sg12
F0.012546613090743508
ssg18
(dp1200
g9
F0.96755057212620876
sg10
F0.0013454956449710396
sg389
F1.0443044788141742
sg12
F0.0013737075123266538
sssS'1.2_2.1'
p1201
(dp1202
g7
(dp1203
g9
F0.993980615484511
sg10
F0.0013275212294866705
sg389
F1.5163894829760709
sg12
F0.0013490572592071658
ssg13
(dp1204
g12
F0.0066050392593390425
sg15
F1.0276686030015507
sg389
F1.5114698604389425
sg10
F0.0012025946909462915
ssg16
(dp1205
g9
F0.99999999999998379
sg10
F1.6209256159527285e-14
sg389
F1.5065502379018141
sg12
F0.0063157566850110093
ssg18
(dp1206
g9
F0.97307633713752262
sg10
F0.0011387099241031134
sg389
F1.5163894829760709
sg12
F0.0011596410717771882
sssS'0_0.9'
p1207
(dp1208
g7
(dp1209
g9
F0.99256915673069268
sg10
F0.00076635733364986745
sg389
F0.44116954528815872
sg12
F0.00077527772927779386
ssg13
(dp1210
g12
F0.0056568271251229308
sg15
F1.0157424817711569
sg389
F0.43998334029288966
sg10
F0.0056993487789157539
ssg16
(dp1211
g9
F0.98820958471583253
sg10
F0.0055077181324228669
sg389
F0.43879713529762054
sg12
F0.0054650325012327791
ssg18
(dp1212
g9
F0.97289382146613079
sg10
F0.00063079343782035347
sg389
F0.44116954528815872
sg12
F0.00063943028244230139
sssss.