(dp0
S'Tight'
p1
(dp2
S'abseta_2p4pt20-500'
p3
(dp4
S'0.9_1.2'
p5
(dp6
S'data/mc'
p7
(dp8
S'abseta_2p4'
p9
F1.0481780584834457
sS'efficiency_ratio'
p10
F0.99275909043682486
sS'err_hi'
p11
F0.00033211216820286951
sS'err_low'
p12
F0.00033292526424767298
ssS'data'
p13
(dp14
g9
F1.0485343668545537
sg12
F0.00022845368047958098
sg11
F0.00022809923850218683
sS'efficiency'
p15
F0.95852513503050352
ssS'mc'
p16
(dp17
g9
F1.0478217501123377
sg12
F0.00022778131118828806
sg11
F0.00022701772452213574
sg15
F0.96551635161430949
sssS'2.1_2.4'
p18
(dp19
g7
(dp20
g9
F2.246064465598911
sg10
F0.99524920431715624
sg11
F0.00059756017307230163
sg12
F0.00059839607740654304
ssg13
(dp21
g9
F2.2464681601794805
sg12
F0.00041084184488585096
sg11
F0.00041066968773602173
sg15
F0.93782076569686834
ssg16
(dp22
g9
F2.2456607710183416
sg12
F0.00038804953550464986
sg11
F0.00038707759857325931
sg15
F0.94229742825095775
sssS'1.2_2.1'
p23
(dp24
g7
(dp25
g9
F1.6215386155003051
sg10
F0.99603307977774636
sg11
F0.00024333040348436264
sg12
F0.00024350432485308038
ssg13
(dp26
g9
F1.6181494340565663
sg12
F0.00016139340043458156
sg11
F0.00016147243177827352
sg15
F0.9486894006099289
ssg16
(dp27
g9
F1.6249277969440441
sg12
F0.00016722779453575722
sg11
F0.00016691910903586987
sg15
F0.95246776424495694
sssS'0_0.9'
p28
(dp29
g7
(dp30
g9
F0.44081890391415973
sg10
F0.99250402578714891
sg11
F0.00018047308674381163
sg12
F0.00018076253206331653
ssg13
(dp31
g9
F0.43954759537257582
sg12
F0.00012202841798692683
sg11
F0.0001218515988465287
sg15
F0.95623419863556014
ssg16
(dp32
g9
F0.44209021245574365
sg12
F0.0001251948561853105
sg11
F0.00012497600256204528
sg15
F0.96345624177914702
ssssS'ptabseta1.2-2.1'
p33
(dp34
S'10_20'
p35
(dp36
g7
(dp37
g12
F0.0037873124208335478
sg10
F1.0180184284620057
sS'pt'
p38
F15.333469659394478
sg11
F0.0037948316398176323
ssg13
(dp39
g15
F0.97203762153027973
sg11
F0.0035332651529235404
sg38
F14.584143014908962
sg12
F0.0035247853048046671
ssg16
(dp40
g15
F0.95483303087038163
sg11
F0.00078907938744187745
sg38
F16.082796303879995
sg12
F0.00079387859945755296
sssS'25_30'
p41
(dp42
g7
(dp43
g12
F0.00085948910731223132
sg10
F0.99848603592153751
sg38
F27.597681632289092
sg11
F0.00085605860714469035
ssg13
(dp44
g15
F0.95226050506741755
sg11
F0.0005928569920822936
sg38
F27.581156759337365
sg12
F0.00059428485507916778
ssg16
(dp45
g15
F0.95370437923905782
sg11
F0.00056216507058043765
sg38
F27.614206505240819
sg12
F0.00056541884921985919
sssS'30_35'
p46
(dp47
g7
(dp48
g12
F0.0007065827787686896
sg10
F0.99655845000635457
sg38
F32.597706573946269
sg11
F0.00070371753678248031
ssg13
(dp49
g15
F0.95005197925084128
sg11
F0.00045738406810011054
sg38
F32.589704990115202
sg12
F0.00045842063053700056
ssg16
(dp50
g15
F0.95333292216305354
sg11
F0.00049248600294285103
sg38
F32.605708157777336
sg12
F0.00049526207015651461
sssS'20_25'
p51
(dp52
g7
(dp53
g12
F0.0014175455381989866
sg10
F1.0003513994342943
sg38
F22.693842052442925
sg11
F0.0014140119111793995
ssg13
(dp54
g15
F0.95400568233426886
sg11
F0.0011710207926902334
sg38
F22.735093678968937
sg12
F0.0011723765568526043
ssg16
(dp55
g15
F0.95367056303791431
sg11
F0.00066847033711040719
sg38
F22.652590425916912
sg12
F0.0006728828778726747
sssS'60_90'
p56
(dp57
g7
(dp58
g12
F0.0015526240554359254
sg10
F0.99248618106666575
sg38
F69.745036218257198
sg11
F0.0015447865068057166
ssg13
(dp59
g15
F0.94537138657743292
sg11
F0.0011081858804519046
sg38
F69.998133957856368
sg12
F0.0011109332290748012
ssg16
(dp60
g15
F0.95252851335562516
sg11
F0.00097536724387153504
sg38
F69.491938478658028
sg12
F0.0009836222032206575
sssS'50_60'
p61
(dp62
g7
(dp63
g12
F0.00092623930692690168
sg10
F0.9951827274866013
sg38
F53.832347658447937
sg11
F0.00092185781274678989
ssg13
(dp64
g15
F0.94727813837437302
sg11
F0.00059504355512662085
sg38
F53.875131979800294
sg12
F0.00059678837170510453
ssg16
(dp65
g15
F0.9518635243668121
sg11
F0.00064802424347809801
sg38
F53.789563337095579
sg12
F0.00065210699769922516
sssS'90_140'
p66
(dp67
g7
(dp68
g12
F0.0053808348157754976
sg10
F1.023129380083607
sg38
F106.34925741184577
sg11
F0.0053513531339334803
ssg13
(dp69
g15
F0.97471494569258332
sg11
F0.0042767818209963763
sg38
F107.29501577866968
sg12
F0.0042785354497910629
ssg16
(dp70
g15
F0.95268004679225671
sg11
F0.0027121638825074804
sg38
F105.40349904502186
sg12
F0.0027596794901399925
sssS'40_50'
p71
(dp72
g7
(dp73
g12
F0.00023914919466043162
sg10
F0.99606181263062676
sg38
F44.355719393116075
sg11
F0.00023889542772002653
ssg13
(dp74
g15
F0.94811108410245548
sg11
F0.00022191001857869332
sg38
F44.350766028538381
sg12
F0.00022215753288591704
ssg16
(dp75
g15
F0.95185968589486225
sg11
F4.9838962295156719e-05
sg38
F44.360672757693763
sg12
F4.9838962295156719e-05
sssS'35_40'
p76
(dp77
g7
(dp78
g12
F0.00058761496280369861
sg10
F0.99602644892870895
sg38
F37.619519610940657
sg11
F0.00058478652250191349
ssg13
(dp79
g15
F0.94855615051311548
sg11
F0.00036124724272657954
sg38
F37.608613983469979
sg12
F0.00036196666539348258
ssg16
(dp80
g15
F0.95234032342549657
sg11
F0.00042554896191550703
sg38
F37.630425238411341
sg12
F0.00042848456399267469
sssS'140_300'
p81
(dp82
g7
(dp83
g12
F0.029172667852370958
sg10
F0.9747541719440429
sg38
F179.41176156208206
sg11
F0.030098827448524764
ssg13
(dp84
g15
F0.93331368291798389
sg11
F0.026684822126296606
sg38
F185.17292809965349
sg12
F0.025593573896323562
ssg16
(dp85
g15
F0.95748621527475963
sg11
F0.011166166205925379
sg38
F173.65059502451066
sg12
F0.011478596798317538
ssssS'vtxpt20-500'
p86
(dp87
S'4.5_6.5'
p88
(dp89
g7
(dp90
S'vtx'
p91
F5.6254005899067554
sg10
F0.9963274325611845
sg11
F0.0006467312606094689
sg12
F0.00065054882879829056
ssg13
(dp92
g91
F5.623514758821849
sg12
F0.00038928265798855569
sg11
F0.00038803752621947748
sg15
F0.9584496297784505
ssg16
(dp93
g91
F5.6272864209916627
sg12
F0.00049181180022564073
sg11
F0.00048809523448635749
sg15
F0.96198257566253664
sssS'20.5_22.5'
p94
(dp95
g7
(dp96
g91
F21.444349811859155
sg10
F0.99171755663643124
sg11
F0.00062665712680713605
sg12
F0.00062867937715741114
ssg13
(dp97
g91
F21.442378013760965
sg12
F0.00046687785528976716
sg11
F0.00046588660656351132
sg15
F0.95062066135679468
ssg16
(dp98
g91
F21.446321609957344
sg12
F0.00038421261420347566
sg11
F0.00038234507287599595
sg15
F0.95855987926741637
sssS'16.5_18.5'
p99
(dp100
g7
(dp101
g91
F17.470386113453777
sg10
F0.99245963357933875
sg11
F0.00041209901273791692
sg12
F0.00041309112137229436
ssg13
(dp102
g91
F17.467666821635824
sg12
F0.00028930334954284403
sg11
F0.00028882584556401728
sg15
F0.95168956641669245
ssg16
(dp103
g91
F17.473105405271735
sg12
F0.00027263988401133026
sg11
F0.00027175079785290404
sg15
F0.95892017591122802
sssS'12.5_14.5'
p104
(dp105
g7
(dp106
g91
F13.498264880441399
sg10
F0.99360638643118238
sg11
F0.00033796204619851222
sg12
F0.00033872734766321434
ssg13
(dp107
g91
F13.494940983038253
sg12
F0.00022328712889662495
sg11
F0.00022295337678928244
sg15
F0.95409036902565791
ssg16
(dp108
g91
F13.501588777844544
sg12
F0.00023802631704739988
sg11
F0.00023732619018126879
sg15
F0.96022970670764574
sssS'22.5_24.5'
p109
(dp110
g7
(dp111
g91
F23.430869816795621
sg10
F0.98890073961194791
sg11
F0.00085108601134780684
sg12
F0.00085401980991580014
ssg13
(dp112
g91
F23.42952281335144
sg12
F0.00065174604802155638
sg11
F0.0006501025463161856
sg15
F0.94694680907630047
ssg16
(dp113
g91
F23.432216820239805
sg12
F0.00049951242868775578
sg11
F0.00049700103053681749
sg15
F0.95757518540019448
sssS'2.5_4.5'
p114
(dp115
g7
(dp116
g91
F3.7128305557827446
sg10
F0.99670021491356031
sg11
F0.0012455429231615783
sg12
F0.0012601217626839712
ssg13
(dp117
g91
F3.7115497076023392
sg12
F0.00074105196882915151
sg11
F0.00073580239696848307
sg15
F0.95925429312307375
ssg16
(dp118
g91
F3.7141114039631495
sg12
F0.00096321756444704384
sg11
F0.00094949013754715259
sg15
F0.96243010563238007
sssS'24.5_26.5'
p119
(dp120
g7
(dp121
g91
F25.418555794479367
sg10
F0.98987067876305712
sg11
F0.0012026456751819731
sg12
F0.0012085347400469044
ssg13
(dp122
g91
F25.417836614919331
sg12
F0.00094022406588682825
sg11
F0.00093721976231420545
sg15
F0.9477513216790554
ssg16
(dp123
g91
F25.419274974039407
sg12
F0.00068135321093451019
sg11
F0.00067580615501591063
sg15
F0.95744963661653859
sssS'18.5_20.5'
p124
(dp125
g7
(dp126
g91
F19.457677480574667
sg10
F0.99196994726563403
sg11
F0.00049501929735391186
sg12
F0.00049637001183182121
ssg13
(dp127
g91
F19.455656553863601
sg12
F0.00035788726020254396
sg11
F0.00035721176729774137
sg15
F0.95087611361557045
ssg16
(dp128
g91
F19.459698407285735
sg12
F0.0003160810432039097
sg11
F0.00031487725545555545
sg15
F0.95857350944618958
sssS'14.5_16.5'
p129
(dp130
g7
(dp131
g91
F15.482900590165379
sg10
F0.99319544387840886
sg11
F0.00036287176297456164
sg12
F0.00036389539467520732
ssg13
(dp132
g91
F15.480156384438237
sg12
F0.00024687731321249013
sg11
F0.00024648512776040264
sg15
F0.95300280144956384
ssg16
(dp133
g91
F15.485644795892522
sg12
F0.00024861431546434608
sg11
F0.00024761030205676371
sg15
F0.95953199073095474
sssS'0.5_2.5'
p134
(dp135
g7
(dp136
g91
F1.8668066640524801
sg10
F0.9934379822553383
sg11
F0.0039952545778979163
sg12
F0.0041584080226842969
ssg13
(dp137
g91
F1.8670516209823291
sg12
F0.0024429523858845556
sg11
F0.002390779818966896
sg15
F0.95715489286463673
ssg16
(dp138
g91
F1.8665617071226313
sg12
F0.0031965511166140602
sg11
F0.0030368078142413309
sg15
F0.9634772476603618
sssS'8.5_10.5'
p139
(dp140
g7
(dp141
g91
F9.536842503266822
sg10
F0.99563132001795196
sg11
F0.0003654803980916444
sg12
F0.00036646720376277546
ssg13
(dp142
g91
F9.5350343665645525
sg12
F0.00022710479680381574
sg11
F0.00022677113020927621
sg15
F0.95672034545481655
ssg16
(dp143
g91
F9.5386506399690933
sg12
F0.00027030825713449244
sg11
F0.00026934462455231208
sg15
F0.96091828995251594
sssS'28.5_30.5'
p144
(dp145
g7
(dp146
g91
F29.397666976606047
sg10
F0.99004242461671821
sg11
F0.0028556473540055998
sg12
F0.0028818376364259514
ssg13
(dp147
g91
F29.396425829718101
sg12
F0.0023086098831530647
sg11
F0.0022944681377394692
sg15
F0.94542302962517377
ssg16
(dp148
g91
F29.398908123493992
sg12
F0.0015129289198954861
sg11
F0.0014884784698792799
sg15
F0.95493183536168336
sssS'10.5_12.5'
p149
(dp150
g7
(dp151
g91
F11.514359895952596
sg10
F0.99478485196143085
sg11
F0.00033654999948424933
sg12
F0.00033714035530926561
ssg13
(dp152
g91
F11.511358432522464
sg12
F0.00021519666013762942
sg11
F0.00021522850473799078
sg15
F0.95584716779666357
ssg16
(dp153
g91
F11.517361359382729
sg12
F0.00024340605006193221
sg11
F0.00024261410239822119
sg15
F0.96085818547800228
sssS'26.5_28.5'
p154
(dp155
g7
(dp156
g91
F27.406691720087597
sg10
F0.98774652164585408
sg11
F0.00182799624795518
sg12
F0.0018393560077077046
ssg13
(dp157
g91
F27.40280391719034
sg12
F0.0014575197694927653
sg11
F0.0014516687560711468
sg15
F0.9440998733931818
ssg16
(dp158
g91
F27.410579522984854
sg12
F0.00099529068318779867
sg11
F0.00098439840500859853
sg15
F0.95581189374380671
sssS'6.5_8.5'
p159
(dp160
g7
(dp161
g91
F7.5726703317251669
sg10
F0.99613368761921772
sg11
F0.0004453902696347801
sg12
F0.00044764873977284447
ssg13
(dp162
g91
F7.5707151302199227
sg12
F0.00027116592883507349
sg11
F0.00027053893245428497
sg15
F0.95764470167308202
ssg16
(dp163
g91
F7.574625533230412
sg12
F0.00033547088020974253
sg11
F0.00033317330127657945
sg15
F0.96136162603021158
ssssS'ptabseta<0.9'
p164
(dp165
S'10_20'
p166
(dp167
g7
(dp168
g12
F0.0049823173228678687
sg10
F0.97027489172481929
sg38
F16.44375998590095
sg11
F0.0049970324282016696
ssg13
(dp169
g15
F0.93321735537178396
sg11
F0.0046157185704727719
sg38
F15.832814386257263
sg12
F0.0045970214195807007
ssg16
(dp170
g15
F0.96180717787393255
sg11
F0.0013806381413852483
sg38
F17.054705585544635
sg12
F0.0013945731306740808
sssS'25_30'
p171
(dp172
g7
(dp173
g12
F0.00077387558711211179
sg10
F0.99233822894438872
sg38
F27.715519504613873
sg11
F0.0007699641249559135
ssg13
(dp174
g15
F0.95567742151395918
sg11
F0.00056175732783251989
sg38
F27.694825801801358
sg12
F0.00056296171228838144
ssg16
(dp175
g15
F0.96305613715050775
sg11
F0.00048776050896095759
sg38
F27.736213207426388
sg12
F0.00049216081734931481
sssS'30_35'
p176
(dp177
g7
(dp178
g12
F0.0005371101221978478
sg10
F0.99328324357107689
sg38
F32.670654833801805
sg11
F0.00053501068612974887
ssg13
(dp179
g15
F0.95634032067491503
sg11
F0.00035528974240999861
sg38
F32.66111238891515
sg12
F0.00035603243693966359
ssg16
(dp180
g15
F0.96280726254543092
sg11
F0.00037549631328827337
sg38
F32.680197278688453
sg12
F0.00037759351665250449
sssS'20_25'
p181
(dp182
g7
(dp183
g12
F0.0016434404925919229
sg10
F0.9888647105027486
sg38
F22.844475262401168
sg11
F0.0016383654526922649
ssg13
(dp184
g15
F0.95273565468368027
sg11
F0.0014122729275033454
sg38
F22.847877365059006
sg12
F0.0014144827123368545
ssg16
(dp185
g15
F0.96346410642897762
sg11
F0.00071304085888264119
sg38
F22.841073159743335
sg12
F0.00071961789919983599
sssS'60_90'
p186
(dp187
g7
(dp188
g12
F0.0010379053444045262
sg10
F0.98941679566110319
sg38
F69.787522895171492
sg11
F0.001032321205147137
ssg13
(dp189
g15
F0.95468766267417093
sg11
F0.00075094883242999872
sg38
F70.039888206427634
sg12
F0.00075309131736981945
ssg16
(dp190
g15
F0.96489939008592718
sg11
F0.00066141827112385946
sg38
F69.535157583915364
sg12
F0.00066721589176387648
sssS'50_60'
p191
(dp192
g7
(dp193
g12
F0.00065545888083846438
sg10
F0.99118997866431657
sg38
F53.85822092952273
sg11
F0.00065232297734472175
ssg13
(dp194
g15
F0.95521598734698587
sg11
F0.00043088831478421062
sg38
F53.905870990085269
sg12
F0.0004322448408489453
ssg16
(dp195
g15
F0.96370626005944127
sg11
F0.00046181662053041203
sg38
F53.810570868960198
sg12
F0.00046471456104126837
sssS'90_140'
p196
(dp197
g7
(dp198
g12
F0.003163558210568693
sg10
F1.0037489877154855
sg38
F106.37001158933256
sg11
F0.0031360561818843846
ssg13
(dp199
g15
F0.97026955271349646
sg11
F0.0024843490474222864
sg38
F107.08200669031851
sg12
F0.0024926807957512146
ssg16
(dp200
g15
F0.9666456101956451
sg11
F0.0017306728821147471
sg38
F105.65801648834663
sg12
F0.0017648656861471343
sssS'40_50'
p201
(dp202
g7
(dp203
g12
F0.00026602612192190643
sg10
F0.99239188725031624
sg38
F44.317627889485848
sg11
F0.0002657187570658239
ssg13
(dp204
g15
F0.95542620050976601
sg11
F0.00016504716859694465
sg38
F44.321602994303881
sg12
F0.0001649451386227033
ssg16
(dp205
g15
F0.96275091804410717
sg11
F0.00019695640206057654
sg38
F44.313652784667816
sg12
F0.00019743311230652414
sssS'35_40'
p206
(dp207
g7
(dp208
g12
F0.000414816752718396
sg10
F0.99366190452368752
sg38
F37.622781286720425
sg11
F0.00041246101992575601
ssg13
(dp209
g15
F0.95643473228680642
sg11
F0.00025973053627765261
sg38
F37.619271764231577
sg12
F0.00026023030592960226
ssg16
(dp210
g15
F0.96253537338263362
sg11
F0.00030217452578679588
sg38
F37.626290809209273
sg12
F0.00030475386792481199
sssS'140_300'
p211
(dp212
g7
(dp213
g12
F0.017259062669990236
sg10
F1.0185025540365602
sg38
F179.12930540174807
sg11
F0.017381584793380422
ssg13
(dp214
g15
F0.96587196039749501
sg11
F0.015004922218300921
sg38
F184.8175112154305
sg12
F0.014767831241579706
ssg16
(dp215
g15
F0.94832551628812523
sg11
F0.0066991560850299349
sg38
F173.44109958806567
sg12
F0.0069284835989661658
ssssS'ptabseta0.9-1.2'
p216
(dp217
S'10_20'
p218
(dp219
g7
(dp220
g12
F0.0068115729432025552
sg10
F1.0017313093647269
sg38
F15.788483413581961
sg11
F0.0068436325248586536
ssg13
(dp221
g15
F0.96114396965718574
sg11
F0.0063928220869841311
sg38
F15.040671933000242
sg12
F0.0063568732642361129
ssg16
(dp222
g15
F0.95948280808625153
sg11
F0.0014969910441766164
sg38
F16.536294894163678
sg12
F0.0015152900998016176
sssS'25_30'
p223
(dp224
g7
(dp225
g12
F0.0013875853360304511
sg10
F0.99472196571329941
sg38
F27.64303277124737
sg11
F0.0013775986784426517
ssg13
(dp226
g15
F0.95968182250766221
sg11
F0.0010053529687014131
sg38
F27.62349251305551
sg12
F0.0010091111666494881
ssg16
(dp227
g15
F0.96477393240179388
sg11
F0.00087392030219954537
sg38
F27.66257302943923
sg12
F0.00088434300976328241
sssS'30_35'
p228
(dp229
g7
(dp230
g12
F0.0010439262890231983
sg10
F0.99339134818745545
sg38
F32.657675850565795
sg11
F0.0010356560882600189
ssg13
(dp231
g15
F0.95940750125402863
sg11
F0.00070493949091586733
sg38
F32.644925652495751
sg12
F0.00070776602396321767
ssg16
(dp232
g15
F0.96579007156098773
sg11
F0.00071430717760127761
sg38
F32.670426048635839
sg12
F0.00072280322374372325
sssS'20_25'
p233
(dp234
g7
(dp235
g12
F0.0025039574199766336
sg10
F0.99394664518921771
sg38
F22.724227177578065
sg11
F0.0024934393093577955
ssg13
(dp236
g15
F0.95924782817052467
sg11
F0.0021527214751138816
sg38
F22.771168665970904
sg12
F0.0021567186970275621
ssg16
(dp237
g15
F0.9650898595144537
sg11
F0.0010819645450582986
sg38
F22.677285689185226
sg12
F0.0010967070822198036
sssS'60_90'
p238
(dp239
g7
(dp240
g12
F0.0019600150019625376
sg10
F0.99040605451701003
sg38
F69.73638516333645
sg11
F0.0019408960540877624
ssg13
(dp241
g15
F0.95943807959611904
sg11
F0.0014223973092779957
sg38
F69.973069869228254
sg12
F0.0014297461313685074
ssg16
(dp242
g15
F0.96873204199464114
sg11
F0.0012415325854507637
sg38
F69.499700457444646
sg12
F0.0012615022750703901
sssS'50_60'
p243
(dp244
g7
(dp245
g12
F0.0012348803272911781
sg10
F0.99501006221974697
sg38
F53.824308178390183
sg11
F0.0012248477719783437
ssg13
(dp246
g15
F0.95843861988530243
sg11
F0.0008029007962629507
sg38
F53.860949064284711
sg12
F0.00080702957005121436
ssg16
(dp247
g15
F0.96324515326723625
sg11
F0.00086882716625167515
sg38
F53.787667292495655
sg12
F0.00087822187860031055
sssS'90_140'
p248
(dp249
g7
(dp250
g12
F0.0062819075508589199
sg10
F1.0090275981046186
sg38
F106.25695347732706
sg11
F0.006194544939853352
ssg13
(dp251
g15
F0.97388698432693332
sg11
F0.0048839007722574837
sg38
F107.10761639311517
sg12
F0.0049034231651168885
ssg16
(dp252
g15
F0.96517378331009562
sg11
F0.0034178707846982078
sg38
F105.40629056153895
sg12
F0.0035343263664220866
sssS'40_50'
p253
(dp254
g7
(dp255
g12
F0.00047910623946728598
sg10
F0.99187003918174266
sg38
F44.311004357985297
sg11
F0.00047719450527104409
ssg13
(dp256
g15
F0.9574755748260424
sg11
F0.00030271486745617996
sg38
F44.318436370217356
sg12
F0.00030356196650903897
ssg16
(dp257
g15
F0.9653236180174628
sg11
F0.00035006276460814416
sg38
F44.303572345753231
sg12
F0.00035178623027600192
sssS'35_40'
p258
(dp259
g7
(dp260
g12
F0.00076915511853835837
sg10
F0.9922848270630622
sg38
F37.661431249084124
sg11
F0.00076414409848781352
ssg13
(dp261
g15
F0.95853827794542834
sg11
F0.00049799878332468359
sg38
F37.651340578729076
sg12
F0.00049989546243519982
ssg16
(dp262
g15
F0.96599106607573959
sg11
F0.00054909602411238408
sg38
F37.671521919439172
sg12
F0.00055395469863087738
sssS'140_300'
p263
(dp264
g7
(dp265
g12
F0.034515129519407155
sg10
F1.0109560562701241
sg38
F178.11850323889246
sg11
F0.032073623313835967
ssg13
(dp266
g15
F0.97146718763311957
sg11
F0.028532812366880433
sg38
F184.51027458906174
sg12
F0.030752719538156125
ssg16
(dp267
g15
F0.96093908494628644
sg11
F0.011527044304900541
sg38
F171.72673188872315
sg12
F0.01228777157297902
ssssS'ptabseta2.1-2.4'
p268
(dp269
S'10_20'
p270
(dp271
g7
(dp272
g12
F0.0069844251709704928
sg10
F1.0050443332472756
sg38
F15.14510709255724
sg11
F0.0070151463347485144
ssg13
(dp273
g15
F0.95115083950698698
sg11
F0.0064676084748368952
sg38
F14.327273280607958
sg12
F0.0064349524943278233
ssg16
(dp274
g15
F0.94637699854875057
sg11
F0.0014911458624720429
sg38
F15.962940904506519
sg12
F0.0015030983623391711
sssS'25_30'
p275
(dp276
g7
(dp277
g12
F0.0017987633268119339
sg10
F0.99618289045052177
sg38
F27.587504461620128
sg11
F0.0017897165128824401
ssg13
(dp278
g15
F0.94595965302521046
sg11
F0.0012925858222138759
sg38
F27.575021344189938
sg12
F0.0012957979305090587
ssg16
(dp279
g15
F0.94958432040265417
sg11
F0.001107621344511797
sg38
F27.599987579050318
sg12
F0.0011171146794054067
sssS'30_35'
p280
(dp281
g7
(dp282
g12
F0.00151251709208394
sg10
F1.0005510519886811
sg38
F32.566014068486304
sg11
F0.0015035662104497108
ssg13
(dp283
g15
F0.94658658946657703
sg11
F0.00099554022685711539
sg38
F32.554687640245177
sg12
F0.00099962671774849864
ssg16
(dp284
g15
F0.94606525832455524
sg11
F0.0010154746481146782
sg38
F32.57734049672743
sg12
F0.0010233185849589928
sssS'20_25'
p285
(dp286
g7
(dp287
g12
F0.0029278411327994035
sg10
F0.99808908265441065
sg38
F22.641193369437776
sg11
F0.0029203985501578306
ssg13
(dp288
g15
F0.94409411044889369
sg11
F0.0024311756428483
sg38
F22.64501848377849
sg12
F0.0024324789918926757
ssg16
(dp289
g15
F0.94590165031971118
sg11
F0.0013141105398132848
sg38
F22.637368255097062
sg12
F0.0013265053567896345
sssS'60_90'
p290
(dp291
g7
(dp292
g12
F0.0049892942061678354
sg10
F0.98948418610023392
sg38
F69.664607465977468
sg11
F0.0049719015777961563
ssg13
(dp293
g15
F0.93725906843280127
sg11
F0.0038470739562987983
sg38
F69.997438825194024
sg12
F0.0038447697778539237
ssg16
(dp294
g15
F0.94721985616236792
sg11
F0.0027453490205766274
sg38
F69.331776106760913
sg12
F0.0027773747423381068
sssS'50_60'
p295
(dp296
g7
(dp297
g12
F0.0026554371737963407
sg10
F0.99359031996660896
sg38
F53.844100280109089
sg11
F0.0026401408031741661
ssg13
(dp298
g15
F0.93032171791670748
sg11
F0.0017886080885535151
sg38
F53.89303122319501
sg12
F0.0017939291742821489
ssg16
(dp299
g15
F0.9363232503593355
sg11
F0.0017174047404769485
sg38
F53.795169337023168
sg12
F0.0017326580878587001
sssS'90_140'
p300
(dp301
g7
(dp302
g12
F0.015680312313880205
sg10
F1.0601733432927236
sg38
F106.29817689357658
sg11
F0.010351620474848782
ssg13
(dp303
g15
F0.99999999999829203
sg11
F1.7079671010833408e-12
sg38
F107.33782488168114
sg12
F0.010983798397566396
ssg16
(dp304
g15
F0.94324197672472776
sg11
F0.0092098929111676196
sg38
F105.25852890547202
sg12
F0.0093428581205466238
sssS'40_50'
p305
(dp306
g7
(dp307
g12
F0.00098552953441551593
sg10
F0.99514412820774623
sg38
F44.288046372923219
sg11
F0.00098200650223561736
ssg13
(dp308
g15
F0.93558782703234655
sg11
F0.00062112957256944465
sg38
F44.271913780710968
sg12
F0.00062280792725481087
ssg16
(dp309
g15
F0.94015308990200186
sg11
F0.00068638761411204756
sg38
F44.304178965135478
sg12
F0.00068935226217914554
sssS'35_40'
p310
(dp311
g7
(dp312
g12
F0.0013364320973364
sg10
F0.9925634188516349
sg38
F37.543462633090442
sg11
F0.0013291528785315703
ssg13
(dp313
g15
F0.93892940209047471
sg11
F0.00086650984786139482
sg38
F37.530492450629922
sg12
F0.00086989613741187397
ssg16
(dp314
g15
F0.94596414118987671
sg11
F0.00091789229518175362
sg38
F37.556432815550963
sg12
F0.00092421971514032998
sssS'140_300'
p315
(dp316
g7
(dp317
g12
F0.16003113987502632
sg10
F0.89054681473737896
sg38
F180.63550023814659
sg11
F0.12406238997906899
ssg13
(dp318
g15
F0.8782662797408638
sg11
F0.1217337202591362
sg38
F185.87001833334077
sg12
F0.14301908950598752
ssg16
(dp319
g15
F0.98621011855492779
sg11
F0.013789881445072205
sg38
F175.40098214295242
sg12
F0.074941300947487188
ssssS'etapt20-500'
p320
(dp321
S'2.1_2.4'
p322
(dp323
g7
(dp324
g12
F0.00083492060075107742
sS'eta'
p325
F2.2459770718248926
sg10
F1.0008304127894669
sg11
F0.00083218017621396482
ssg13
(dp326
g15
F0.94371119256746616
sg325
F2.2464278867963876
sg11
F0.00056172558174283935
sg12
F0.00056290616254272316
ssg16
(dp327
g15
F0.94292817295309717
sg325
F2.2455262568533976
sg11
F0.00054744748088401106
sg12
F0.0005499349618009558
sssS'-0.2_0.2'
p328
(dp329
g7
(dp330
g12
F0.00035907723478302485
sg325
F-1.5295440897051495e-05
sg10
F0.99215008563303519
sg11
F0.00035769475682605005
ssg13
(dp331
g15
F0.96204703349879583
sg325
F-0.00010786544989640858
sg11
F0.00024805086579497476
sg12
F0.00024875262124933369
ssg16
(dp332
g15
F0.96965877182278093
sg325
F7.7274568102305588e-05
sg11
F0.00024434340942688248
sg12
F0.00024555250421058074
sssS'-2.1_-1.6'
p333
(dp334
g7
(dp335
g12
F0.00055873364279436066
sg325
F-1.8407646865934035
sg10
F0.98938076716576695
sg11
F0.00055734005529791157
ssg13
(dp336
g15
F0.92364389995396512
sg325
F-1.8398901670059267
sg11
F0.00035639522741758944
sg12
F0.00035691630085019104
ssg16
(dp337
g15
F0.93355756510194232
sg325
F-1.8416392061808804
sg11
F0.00038315178119016933
sg12
F0.00038446113360331033
sssS'-1.2_-0.9'
p338
(dp339
g7
(dp340
g12
F0.00046413359296312233
sg325
F-1.048249629048934
sg10
F0.99307126971238879
sg11
F0.00046233286101487759
ssg13
(dp341
g15
F0.96030764652681455
sg325
F-1.048656280627138
sg11
F0.0003167480332404366
sg12
F0.00031752219190583008
ssg16
(dp342
g15
F0.96700778263873932
sg325
F-1.0478429774707299
sg11
F0.00031771800666010377
sg12
F0.00031941935760653795
sssS'1.6_2.1'
p343
(dp344
g7
(dp345
g12
F0.00049811399276838487
sg325
F1.8402987001013198
sg10
F0.997083044372301
sg11
F0.00049680527944947551
ssg13
(dp346
g15
F0.94420832345147843
sg325
F1.8393084835650535
sg11
F0.00031898499005733361
sg12
F0.00031955496213569961
ssg16
(dp347
g15
F0.94697059465682809
sg325
F1.8412889166375863
sg11
F0.00034681676643784077
sg12
F0.00034798025665772509
sssS'0.9_1.2'
p348
(dp349
g7
(dp350
g12
F0.00047854491663773118
sg325
F1.0481072428857745
sg10
F0.99293202302902428
sg11
F0.00047687684158330965
ssg13
(dp351
g15
F0.95756382435424792
sg325
F1.0484122929615265
sg11
F0.00032298321709375074
sg12
F0.00032365531599818606
ssg16
(dp352
g15
F0.9643800402701459
sg325
F1.0478021928100227
sg11
F0.00032971570142450291
sg12
F0.00033132311587966921
sssS'-0.3_-0.2'
p353
(dp354
g7
(dp355
g12
F0.0012269846475495643
sg325
F-0.25001076671117722
sg10
F0.98440116373645026
sg11
F0.0012230811361553173
ssg13
(dp356
g15
F0.87858966500953528
sg325
F-0.25001306538734197
sg11
F0.00069294454919466514
sg12
F0.00069424875471437017
ssg16
(dp357
g15
F0.89251181060646989
sg325
F-0.25000846803501248
sg11
F0.00085684052877150129
sg12
F0.00086033157761676777
sssS'-0.6_-0.3'
p358
(dp359
g7
(dp360
g12
F0.00034712827870490197
sg325
F-0.4488627121215838
sg10
F0.99517605195463876
sg11
F0.00034556591483003046
ssg13
(dp361
g15
F0.9769343813246657
sg325
F-0.44878188211393694
sg11
F0.00025231993856782305
sg12
F0.00025299088283101795
ssg16
(dp362
g15
F0.98166990594865666
sg325
F-0.44894354212923071
sg11
F0.00022784293845312957
sg12
F0.00022939733788309244
sssS'1.2_1.6'
p363
(dp364
g7
(dp365
g12
F0.00046093540078049656
sg325
F1.3945115973259907
sg10
F0.99992917000341841
sg11
F0.00045949778223726255
ssg13
(dp366
g15
F0.96050160060185941
sg325
F1.3933110280349366
sg11
F0.0003043875023138628
sg12
F0.00030505840379126494
ssg16
(dp367
g15
F0.96056963774601734
sg325
F1.3957121666170449
sg11
F0.00031965401599664135
sg12
F0.00032092189848030659
sssS'0.2_0.3'
p368
(dp369
g7
(dp370
g12
F0.0012819601983586708
sg325
F0.24991653240756129
sg10
F0.98404330538722007
sg11
F0.0012780641470591983
ssg13
(dp371
g15
F0.86818740658971494
sg325
F0.24989684100693835
sg11
F0.00071086136439284611
sg12
F0.00071223050464812743
ssg16
(dp372
g15
F0.88226544689319752
sg325
F0.24993622380818423
sg11
F0.00088948720862004128
sg12
F0.00089285658382679076
sssS'0.6_0.9'
p373
(dp374
g7
(dp375
g12
F0.000429104236475539
sg325
F0.7481263811724016
sg10
F0.99326125151211098
sg11
F0.00042743415551862947
ssg13
(dp376
g15
F0.96141160221565625
sg325
F0.74768635280697504
sg11
F0.00028924084825271429
sg12
F0.00028991508580895084
ssg16
(dp377
g15
F0.96793426779916381
sg325
F0.74856640953782816
sg11
F0.00029782911661740301
sg12
F0.00029944088659118365
sssS'0.3_0.6'
p378
(dp379
g7
(dp380
g12
F0.00035254657898394474
sg325
F0.44896960143016407
sg10
F0.99534251353071268
sg11
F0.00035089343265678547
ssg13
(dp381
g15
F0.97572654666896264
sg325
F0.44898074452543413
sg11
F0.00025291756158810086
sg12
F0.00025374332623828786
ssg16
(dp382
g15
F0.98029224453382624
sg325
F0.44895845833489395
sg11
F0.00023422960887529439
sg12
F0.00023573118200178643
sssS'-0.9_-0.6'
p383
(dp384
g7
(dp385
g12
F0.00042648880972026961
sg325
F-0.74816772752701866
sg10
F0.99477835866551945
sg11
F0.00042477583617276282
ssg13
(dp386
g15
F0.96309457612655947
sg325
F-0.74786506439054523
sg11
F0.00028688285422832747
sg12
F0.00028754330639710904
ssg16
(dp387
g15
F0.9681499077025929
sg325
F-0.74847039066349219
sg11
F0.00029620250516319298
sg12
F0.00029788206051982783
sssS'-1.6_-1.2'
p388
(dp389
g7
(dp390
g12
F0.00041564537943693464
sg325
F-1.3940587552512125
sg10
F0.99800310763632971
sg11
F0.00041424861949071506
ssg13
(dp391
g15
F0.96915625419565299
sg325
F-1.3929829619008509
sg11
F0.0002907082116839754
sg12
F0.00029132029085170646
ssg16
(dp392
g15
F0.97109542723870113
sg325
F-1.3951345486015743
sg11
F0.00027861005974988445
sg12
F0.00027993461838026775
sssS'-2.4_-2.1'
p393
(dp394
g7
(dp395
g12
F0.00084858940182890366
sg325
F-2.2461510858145184
sg10
F0.98958841994174906
sg11
F0.00084598790138364294
ssg13
(dp396
g15
F0.93296825952516116
sg325
F-2.246509061620634
sg11
F0.00058715553063843316
sg12
F0.00058828833994879922
ssg16
(dp397
g15
F0.94278413199305544
sg325
F-2.2457931100084023
sg11
F0.00054548354238534273
sg12
F0.00054789950750904024
sssssS'Loose'
p398
(dp399
S'abseta_2p4pt20-500'
p400
(dp401
S'0.9_1.2'
p402
(dp403
g7
(dp404
g9
F1.0481785045939929
sg10
F0.99895850955147891
sg11
F0.00016661452529884456
sg12
F0.00016737004843317966
ssg13
(dp405
g9
F1.0485343984279099
sg12
F0.00015038404395015121
sg11
F0.00014992858335091048
sg15
F0.99681646479762875
ssg16
(dp406
g9
F1.0478226107600759
sg12
F7.2721227405958956e-05
sg11
F7.1928204356474932e-05
sg15
F0.99785572200109496
sssS'2.1_2.4'
p407
(dp408
g7
(dp409
g9
F2.246064607864156
sg10
F1.0000901618138729
sg11
F0.00034332681759604894
sg12
F0.00034679437538341499
ssg13
(dp410
g9
F2.2464681601794805
sg12
F0.00030098103948497087
sg11
F0.00029781238353906672
sg15
F0.99227147479825439
ssg16
(dp411
g9
F2.245661055548831
sg12
F0.00016672915252123591
sg11
F0.00016534902273375975
sg15
F0.99218201786783133
sssS'1.2_2.1'
p412
(dp413
g7
(dp414
g9
F1.6215386882801801
sg10
F0.99859228153634427
sg11
F0.00012117537857580374
sg12
F0.00012149522936736272
ssg13
(dp415
g9
F1.6181494594564068
sg12
F0.00010857282452504895
sg11
F0.00010837906614863465
sg15
F0.99561994399970866
ssg16
(dp416
g9
F1.6249279171039537
sg12
F5.3790614978580306e-05
sg11
F5.3462233485198133e-05
sg15
F0.99702347235043454
sssS'0_0.9'
p417
(dp418
g7
(dp419
g9
F0.44081859324981199
sg10
F0.99842353428365016
sg11
F8.8118218577119931e-05
sg12
F8.8670695741193705e-05
ssg13
(dp420
g9
F0.43954772753979343
sg12
F7.9536920534784486e-05
sg11
F7.9055798178702611e-05
sg15
F0.99629771817670432
ssg16
(dp421
g9
F0.44208945895983054
sg12
F3.8828788800457516e-05
sg11
F3.8557162229273787e-05
sg15
F0.99787082732532839
ssssS'ptabseta1.2-2.1'
p422
(dp423
S'10_20'
p424
(dp425
g7
(dp426
g12
F0.00043802411199741077
sg10
F1.0022051461495429
sg38
F15.275725910314964
sg11
F0.00041042450319215689
ssg13
(dp427
g15
F0.99999999999979217
sg11
F2.078337502098293e-13
sg38
F14.495751255505001
sg12
F0.00013101896597569719
ssg16
(dp428
g15
F0.99779970582048716
sg11
F0.00040862038088711574
sg38
F16.055700565124926
sg12
F0.00041604271023233517
sssS'25_30'
p429
(dp430
g7
(dp431
g12
F0.00047543801677012382
sg10
F0.99814097061836549
sg38
F27.59239549244457
sg11
F0.00046968306204424434
ssg13
(dp432
g15
F0.99502991455823708
sg11
F0.00043011249573451552
sg38
F27.571494603534735
sg12
F0.00043488336759688409
ssg16
(dp433
g15
F0.99688314962344338
sg11
F0.00018536458337797986
sg38
F27.613296381354406
sg12
F0.00018879429836887482
sssS'30_35'
p434
(dp435
g7
(dp436
g12
F0.00032542530540104002
sg10
F0.99802294719705897
sg38
F32.590934777937534
sg11
F0.0003213265512663367
ssg13
(dp437
g15
F0.99513972822011976
sg11
F0.00028557770888648041
sg38
F32.581227657449112
sg12
F0.00028873318726454399
ssg16
(dp438
g15
F0.99711106945482897
sg11
F0.0001455475843682231
sg38
F32.600641898425962
sg12
F0.00014836010782393099
sssS'20_25'
p439
(dp440
g7
(dp441
g12
F0.0010363917816082876
sg10
F1.0031908842959512
sg38
F22.673201590059662
sg11
F0.00029283160923366657
ssg13
(dp442
g15
F0.99984833350315738
sg11
F0.00015166649684261735
sg38
F22.694614888864066
sg12
F0.0010011596791246421
ssg16
(dp443
g15
F0.99666808097529747
sg11
F0.00024856033794865744
sg38
F22.651788291255261
sg12
F0.00025343816657650306
sssS'60_90'
p444
(dp445
g7
(dp446
g12
F0.00094438508313866615
sg10
F0.98405254469593351
sg38
F69.757681481416057
sg11
F0.0009372420493903292
ssg13
(dp447
g15
F0.9809238541609604
sg11
F0.00086509090417506175
sg38
F70.018245040151612
sg12
F0.0008688273987606138
ssg16
(dp448
g15
F0.99682060622490454
sg11
F0.00035851128130845521
sg38
F69.497117922680502
sg12
F0.00036828174281389821
sssS'50_60'
p449
(dp450
g7
(dp451
g12
F0.00041314376222512962
sg10
F0.99484562524258913
sg38
F53.836238219795788
sg11
F0.00040892367954269138
ssg13
(dp452
g15
F0.99223951560071155
sg11
F0.00036670749103312868
sg38
F53.881632530639656
sg12
F0.00036922863463389907
ssg16
(dp453
g15
F0.99738038789561734
sg11
F0.00017944451315584346
sg38
F53.790843908951928
sg12
F0.00018388189214812157
sssS'90_140'
p454
(dp455
g7
(dp456
g12
F0.0021230631866721232
sg10
F1.0042986220480559
sg38
F106.39737674527883
sg11
F0.0014034594273458338
ssg13
(dp457
g15
F0.99999999998789568
sg11
F1.2104317548278232e-11
sg38
F107.377302881891
sg12
F0.0015327649028598212
ssg16
(dp458
g15
F0.99571977700079484
sg11
F0.0013914709005341925
sg38
F105.41745060866667
sg12
F0.0014496278946664087
sssS'40_50'
p459
(dp460
g7
(dp461
g12
F0.00013047680943596875
sg10
F0.9983502918843149
sg38
F44.349807817520635
sg11
F0.00012982068426597589
ssg13
(dp462
g15
F0.99519408634093187
sg11
F0.00010577585775427322
sg38
F44.345167836445093
sg12
F0.00010622333548866048
ssg16
(dp463
g15
F0.99683857903479356
sg11
F7.4678445438133595e-05
sg38
F44.354447798596176
sg12
F7.5179534654568834e-05
sssS'35_40'
p464
(dp465
g7
(dp466
g12
F0.00022820549070160052
sg10
F0.99822016783570056
sg38
F37.607388234243956
sg11
F0.00022563049980960594
ssg13
(dp467
g15
F0.99527123490087788
sg11
F0.00019214683866037227
sg38
F37.595775084086675
sg12
F0.00019400241562845874
ssg16
(dp468
g15
F0.99704580910119611
sg11
F0.00011720590852884074
sg38
F37.619001384401237
sg12
F0.00011909665570370189
sssS'140_300'
p469
(dp470
g7
(dp471
g12
F0.025327914755947294
sg10
F0.98537402127991536
sg38
F179.80117183362512
sg11
F0.01462597873645247
ssg13
(dp472
g15
F0.98537402126378693
sg11
F0.014625978736213074
sg38
F185.69714888538093
sg12
F0.024556232074032836
ssg16
(dp473
g15
F0.9999999999836322
sg11
F1.6367796007443758e-11
sg38
F173.90519478186931
sg12
F0.0062965048623566978
ssssS'vtxpt20-500'
p474
(dp475
S'4.5_6.5'
p476
(dp477
g7
(dp478
g91
F5.6254005899067554
sg10
F0.99842022202713543
sg11
F0.00025932529893962314
sg12
F0.00026257766021219059
ssg13
(dp479
g91
F5.623514758821849
sg12
F0.00022739334625602282
sg11
F0.00022585856505326089
sg15
F0.99674839297400597
ssg16
(dp480
g91
F5.6272864209916627
sg12
F0.00013062332937191924
sg11
F0.00012674069918564311
sg15
F0.99832552564917498
sssS'20.5_22.5'
p481
(dp482
g7
(dp483
g91
F21.444349209699325
sg10
F0.99865697364320094
sg11
F0.00037133573864511733
sg12
F0.00037353976650735167
ssg13
(dp484
g91
F21.442378013760965
sg12
F0.00034667071007637426
sg11
F0.00034539456063434695
sg15
F0.99577338902345902
ssg16
(dp485
g91
F21.446320405637685
sg12
F0.00013636961086587832
sg11
F0.00013358732776048797
sg15
F0.99711253744193828
sssS'16.5_18.5'
p486
(dp487
g7
(dp488
g91
F17.470386113453777
sg10
F0.99863683377988044
sg11
F0.00021692550750773102
sg12
F0.00021793627524223849
ssg13
(dp489
g91
F17.467666821635824
sg12
F0.00019863366055333705
sg11
F0.00019802004626233368
sg15
F0.99607056862183452
ssg16
(dp490
g91
F17.473105405271735
sg12
F8.8421688961097468e-05
sg11
F8.7315345998524211e-05
sg15
F0.99743023182077861
sssS'12.5_14.5'
p491
(dp492
g7
(dp493
g91
F13.498264770734185
sg10
F0.99841905866191871
sg11
F0.00015919222299750816
sg12
F0.0001599632041350557
ssg13
(dp494
g91
F13.494940763623823
sg12
F0.00014257174532069275
sg11
F0.00014215351056533004
sg15
F0.99614759250956653
ssg16
(dp495
g91
F13.501588777844544
sg12
F7.1843817900909594e-05
sg11
F7.0959656066753383e-05
sg15
F0.99772493710667298
sssS'22.5_24.5'
p496
(dp497
g7
(dp498
g91
F23.430869816795621
sg10
F0.99789490609366083
sg11
F0.0005306424144301432
sg12
F0.00053725014865043926
ssg13
(dp499
g91
F23.42952281335144
sg12
F0.00050198194458041506
sg11
F0.00049622525051956211
sg15
F0.99469300885262124
ssg16
(dp500
g91
F23.432216820239805
sg12
F0.00018694794611096572
sg11
F0.0001835195523097425
sg15
F0.99679134824570492
sssS'2.5_4.5'
p501
(dp502
g7
(dp503
g91
F3.7128305557827446
sg10
F0.99833851679532382
sg11
F0.0004779363025227185
sg12
F0.0004917597033825095
ssg13
(dp504
g91
F3.7115497076023392
sg12
F0.00042615333204767074
sg11
F0.00041852866981479785
sg15
F0.99701277116251952
ssg16
(dp505
g91
F3.7141114039631495
sg12
F0.00024449452519424258
sg11
F0.00022983904788222468
sg15
F0.99867204799724651
sssS'24.5_26.5'
p506
(dp507
g7
(dp508
g91
F25.418555794479367
sg10
F0.99923513368605732
sg11
F0.00078284837948611576
sg12
F0.00078829413684652514
ssg13
(dp509
g91
F25.417836614919331
sg12
F0.00073814763806094011
sg11
F0.00073486426162066036
sg15
F0.99567244888084772
ssg16
(dp510
g91
F25.419274974039407
sg12
F0.00026876182103044004
sg11
F0.00026185608225935306
sg15
F0.99643458813135677
sssS'18.5_20.5'
p511
(dp512
g7
(dp513
g91
F19.457677290581771
sg10
F0.99877276191024555
sg11
F0.00027803380665522532
sg12
F0.00027940179465847794
ssg13
(dp514
g91
F19.455656173877802
sg12
F0.00025595264121847756
sg11
F0.00025509892996602676
sg15
F0.99568925268753161
ssg16
(dp515
g91
F19.459698407285735
sg12
F0.0001100091640703668
sg11
F0.00010853410503295788
sg15
F0.99691270192749704
sssS'14.5_16.5'
p516
(dp517
g7
(dp518
g91
F15.48290046999999
sg10
F0.99867018652853434
sg11
F0.00018090811651411145
sg12
F0.00018174167890300483
ssg13
(dp519
g91
F15.480156144107458
sg12
F0.00016318617543466279
sg11
F0.00016265926502602302
sg15
F0.9961315581560064
ssg16
(dp520
g91
F15.485644795892522
sg12
F7.9051930080200451e-05
sg11
F7.8229142419818153e-05
sg15
F0.99745799122996504
sssS'0.5_2.5'
p521
(dp522
g7
(dp523
g91
F1.8668066640524801
sg10
F0.99812034828802632
sg11
F0.0016072161179922838
sg12
F0.001755994230681106
ssg13
(dp524
g91
F1.8670516209823291
sg12
F0.0014230045810293451
sg11
F0.0013604208089777654
sg15
F0.99577719862267611
ssg16
(dp525
g91
F1.8665617071226313
sg12
F0.001023742856659818
sg11
F0.0008502942728359251
sg15
F0.99765243773521983
sssS'8.5_10.5'
p526
(dp527
g7
(dp528
g91
F9.5368427404484279
sg10
F0.99858942950052876
sg11
F0.00015497703109140581
sg12
F0.00015599181400578868
ssg13
(dp529
g91
F9.5350348409277608
sg12
F0.00013584232459908218
sg11
F0.00013533288477510976
sg15
F0.99664151401069923
ssg16
(dp530
g91
F9.5386506399690933
sg12
F7.6169710482359532e-05
sg11
F7.5000921300077183e-05
sg15
F0.998049332956785
sssS'28.5_30.5'
p531
(dp532
g7
(dp533
g91
F29.397666976606047
sg10
F0.99906050575196881
sg11
F0.0020011613820447565
sg12
F0.0020297327767089747
ssg13
(dp534
g91
F29.396425829718101
sg12
F0.0019113925591388401
sg11
F0.0018906502112454753
sg15
F0.99457864100885163
ssg16
(dp535
g91
F29.398908123493992
sg12
F0.00065598863828906324
sg11
F0.00062847492937879133
sg15
F0.99551392061110078
sssS'10.5_12.5'
p536
(dp537
g7
(dp538
g91
F11.514360003495106
sg10
F0.99865944771878712
sg11
F0.00015050904624433261
sg12
F0.00015134246828463037
ssg13
(dp539
g91
F11.511358647607485
sg12
F0.00013279895976014202
sg11
F0.00013236954126917934
sg15
F0.99651225782565422
ssg16
(dp540
g91
F11.517361359382729
sg12
F7.2003353117544857e-05
sg11
F7.104572473502428e-05
sg15
F0.9978499278227051
sssS'26.5_28.5'
p541
(dp542
g7
(dp543
g91
F27.406691720087597
sg10
F0.99724114917241025
sg11
F0.0012463898692071178
sg12
F0.0012635936697138156
ssg13
(dp544
g91
F27.40280391719034
sg12
F0.0011881006776453603
sg11
F0.0011745512938435361
sg15
F0.99293714500501351
ssg16
(dp545
g91
F27.410579522984854
sg12
F0.00041506940783732826
sg11
F0.00040177847496608831
sg15
F0.99568408887763149
sssS'6.5_8.5'
p546
(dp547
g7
(dp548
g91
F7.5726703317251669
sg10
F0.99862892254483093
sg11
F0.00018144066151714274
sg12
F0.00018292435399897529
ssg13
(dp549
g91
F7.5707151302199227
sg12
F0.00015869259396856429
sg11
F0.00015793486799439818
sg15
F0.99687929639682604
ssg16
(dp550
g91
F7.574625533230412
sg12
F9.0461354372042439e-05
sg11
F8.8789861316474896e-05
sg15
F0.99824797168547219
ssssS'ptabseta<0.9'
p551
(dp552
S'10_20'
p553
(dp554
g7
(dp555
g12
F0.0047170100675850814
sg10
F0.97550620218353268
sg38
F16.23778326165715
sg11
F0.0047318132879827467
ssg13
(dp556
g15
F0.97055838466641231
sg11
F0.0046241966841426485
sg38
F15.52210007058634
sg12
F0.0046059999110311788
ssg16
(dp557
g15
F0.9949279486834165
sg11
F0.00090553204719194221
sg38
F16.953466452727962
sg12
F0.00092249145147430228
sssS'25_30'
p558
(dp559
g7
(dp560
g12
F0.00046982237679524599
sg10
F0.99337028627770874
sg38
F27.700376377447533
sg11
F0.00046544641547983272
ssg13
(dp561
g15
F0.99086353324885357
sg11
F0.00043372643204467093
sg38
F27.670928746923469
sg12
F0.00043710628063647222
ssg16
(dp562
g15
F0.99747651700128026
sg11
F0.00016672463143142615
sg38
F27.729824007971594
sg12
F0.0001701205679898283
sssS'30_35'
p563
(dp564
g7
(dp565
g12
F0.00025687332902614939
sg10
F0.99676881934617823
sg38
F32.6585843250772
sg11
F0.00025394609446579999
ssg13
(dp566
g15
F0.99436703034565033
sg11
F0.00022770994947419749
sg38
F32.644832400242009
sg12
F0.00022989656010582131
ssg16
(dp567
g15
F0.99759042522808516
sg11
F0.00011138418775229431
sg38
F32.672336249912384
sg12
F0.00011356534060715363
sssS'20_25'
p568
(dp569
g7
(dp570
g12
F0.0013169312215617051
sg10
F0.98620246439957804
sg38
F22.802263663582398
sg11
F0.0013082782216490832
ssg13
(dp571
g15
F0.98309423928288053
sg11
F0.0012698909143641416
sg38
F22.77169888830446
sg12
F0.0012771523123236935
ssg16
(dp572
g15
F0.99684828903911749
sg11
F0.00030113486215080625
sg38
F22.832828438860336
sg12
F0.00030801783590340769
sssS'60_90'
p573
(dp574
g7
(dp575
g12
F0.00062622663423708323
sg10
F0.98762840902317239
sg38
F69.799443587292799
sg11
F0.00062088289447763075
ssg13
(dp576
g15
F0.98560086606956676
sg11
F0.00057861117503369515
sg38
F70.061268809011011
sg12
F0.00058177912806006997
ssg16
(dp577
g15
F0.99794705889879065
sg11
F0.0002244145889297613
sg38
F69.537618365574588
sg12
F0.00023107873720201524
sssS'50_60'
p578
(dp579
g7
(dp580
g12
F0.00029430422739557053
sg10
F0.99504180579888202
sg38
F53.862701558201927
sg11
F0.0002913746697688136
ssg13
(dp581
g15
F0.99312465689148033
sg11
F0.00026178381668560957
sg38
F53.912705915853564
sg12
F0.00026345567919457607
ssg16
(dp582
g15
F0.998073298130562
sg11
F0.00012728653277948687
sg38
F53.812697200550289
sg12
F0.00013054198842158267
sssS'90_140'
p583
(dp584
g7
(dp585
g12
F0.0023076094940997615
sg10
F0.99892629232832097
sg38
F106.40838936539495
sg11
F0.0022831298072810229
ssg13
(dp586
g15
F0.99693619389672328
sg11
F0.002138477687616552
sg38
F107.14844663026464
sg12
F0.0021491150178652714
ssg16
(dp587
g15
F0.99800776248770151
sg11
F0.00078751307788853622
sg38
F105.66833210052526
sg12
F0.00082863954454937602
sssS'40_50'
p588
(dp589
g7
(dp590
g12
F9.2516228346608949e-05
sg10
F0.9981980104193654
sg38
F44.312498297096141
sg11
F9.1678049225577104e-05
ssg13
(dp591
g15
F0.99608561732672896
sg11
F7.5898612045848204e-05
sg38
F44.316997596899341
sg12
F7.6526791812609816e-05
ssg16
(dp592
g15
F0.99788379352534573
sg11
F5.1167933944917496e-05
sg38
F44.307998997292934
sg12
F5.1733466024019397e-05
sssS'35_40'
p593
(dp594
g7
(dp595
g12
F0.00016272309683736767
sg10
F0.99744238282885689
sg38
F37.61081396135171
sg11
F0.00016110045494100914
ssg13
(dp596
g15
F0.99523267540189753
sg11
F0.00013832524380428266
sg38
F37.605635102009025
sg12
F0.00013942221349979493
ssg16
(dp597
g15
F0.99778462649572564
sg11
F8.2091691683761805e-05
sg38
F37.615992820694395
sg12
F8.3418289947502172e-05
sssS'140_300'
p598
(dp599
g7
(dp600
g12
F0.014982631047829606
sg10
F1.0023098880936039
sg38
F179.35297619539489
sg11
F0.0098527280075606169
ssg13
(dp601
g15
F0.99147893465241843
sg11
F0.008521065347581569
sg38
F185.20033642606822
sg12
F0.013949037763058451
ssg16
(dp602
g15
F0.98919400719293904
sg11
F0.0047199556588308021
sg38
F173.50561596472156
sg12
F0.004996287901787284
ssssS'ptabseta0.9-1.2'
p603
(dp604
S'10_20'
p605
(dp606
g7
(dp607
g12
F0.0052362054373640381
sg10
F1.0045278395944131
sg38
F15.686016484368682
sg11
F0.00087391990279586467
ssg13
(dp608
g15
F0.99999999973813503
sg11
F2.618649741492618e-10
sg38
F14.894904079693296
sg12
F0.0051358859373192463
ssg16
(dp609
g15
F0.99549256906796502
sg11
F0.00086605939119129309
sg38
F16.477128889044071
sg12
F0.00088700117506071733
sssS'25_30'
p610
(dp611
g7
(dp612
g12
F0.00084222042017427978
sg10
F0.99890278463744453
sg38
F27.63520671940578
sg11
F0.00083000818806959497
ssg13
(dp613
g15
F0.99537690470626461
sg11
F0.00075692327132455424
sg38
F27.609002531179719
sg12
F0.00076529146044062614
ssg16
(dp614
g15
F0.99647024716978871
sg11
F0.00033372175175723371
sg38
F27.66141090763184
sg12
F0.00034485697145208874
sssS'30_35'
p615
(dp616
g7
(dp617
g12
F0.0005124766343143854
sg10
F0.99749289244308714
sg38
F32.645760422774103
sg11
F0.00050458172373769872
ssg13
(dp618
g15
F0.99520435669328933
sg11
F0.00045514110964278351
sg38
F32.630702473387416
sg12
F0.00046014319650000544
ssg16
(dp619
g15
F0.99770571222398119
sg11
F0.00021567407817450632
sg38
F32.660818372160783
sg12
F0.00022348813053309414
sssS'20_25'
p620
(dp621
g7
(dp622
g12
F0.001964166764205156
sg10
F0.99923456953285783
sg38
F22.697579041614699
sg11
F0.0019410172163228879
ssg13
(dp623
g15
F0.99602827186734422
sg11
F0.0018836226155506831
sg38
F22.717321511583499
sg12
F0.0019034158111287957
ssg16
(dp624
g15
F0.99679124625660964
sg11
F0.00044235012755693213
sg38
F22.677836571645898
sg12
F0.00045887126575936587
sssS'60_90'
p625
(dp626
g7
(dp627
g12
F0.0011756921793043523
sg10
F0.98944733996374079
sg38
F69.747741106373567
sg11
F0.0011581329779536691
ssg13
(dp628
g15
F0.98773648822387417
sg11
F0.0010752955767811666
sg38
F69.994795263592195
sg12
F0.00108491371481716
ssg16
(dp629
g15
F0.99827090167332266
sg11
F0.00042923778846933421
sg38
F69.500686949154939
sg12
F0.00045247828362009787
sssS'50_60'
p630
(dp631
g7
(dp632
g12
F0.00054259284617536106
sg10
F0.99701834288328239
sg38
F53.830346750793439
sg11
F0.00053286500502883443
ssg13
(dp633
g15
F0.99491430408404202
sg11
F0.00047625272038477688
sg38
F53.868009529560993
sg12
F0.00048180676510261618
ssg16
(dp634
g15
F0.99788966891706754
sg11
F0.0002372052309589786
sg38
F53.792683972025884
sg12
F0.00024777715700547201
sssS'90_140'
p635
(dp636
g7
(dp637
g12
F0.0045650461563335083
sg10
F1.0010512268932856
sg38
F106.28185278560642
sg11
F0.0020445331202077737
ssg13
(dp638
g15
F0.99866636068429981
sg11
F0.0013336393157001858
sg38
F107.17142935183379
sg12
F0.004232117610596213
ssg16
(dp639
g15
F0.99761763819381433
sg11
F0.0015416319615935521
sg38
F105.39227621937904
sg12
F0.0016803899017907803
sssS'40_50'
p640
(dp641
g7
(dp642
g12
F0.00016862674600403668
sg10
F0.9981072469203387
sg38
F44.305822837750128
sg11
F0.00016673046347293337
ssg13
(dp643
g15
F0.99615988953047252
sg11
F0.00013964776177384462
sg38
F44.312574719351908
sg12
F0.00014066341153637477
ssg16
(dp644
g15
F0.99804894975377167
sg11
F9.0665702758356621e-05
sg38
F44.299070956148356
sg12
F9.2576177389628786e-05
sssS'35_40'
p645
(dp646
g7
(dp647
g12
F0.00030619812826576231
sg10
F0.99863323530459513
sg38
F37.647377449429193
sg11
F0.00030090446209971239
ssg13
(dp648
g15
F0.99652845335100382
sg11
F0.00026002680641833023
sg38
F37.635825841542193
sg12
F0.00026324952838124827
ssg16
(dp649
g15
F0.9978923373675328
sg11
F0.00015036638649726844
sg38
F37.658929057316193
sg12
F0.00015533218703850355
sssS'140_300'
p650
(dp651
g7
(dp652
g12
F0.013720527058985941
sg10
F1.0043060438295757
sg38
F178.39585488462711
sg11
F0.0043245858432484682
ssg13
(dp653
g15
F0.99999999999979128
sg11
F2.0872192862952943e-13
sg38
F184.89399651087078
sg12
F0.010516149160654298
ssg16
(dp654
g15
F0.99571241868328819
sg11
F0.0042875813167118082
sg38
F171.89771325838342
sg12
F0.0086834247754582032
ssssS'ptabseta2.1-2.4'
p655
(dp656
S'10_20'
p657
(dp658
g7
(dp659
g12
F0.001441755070114943
sg10
F1.0076288723779345
sg38
F15.096263834890891
sg11
F0.00087331535206727415
ssg13
(dp660
g15
F0.99999997144389752
sg11
F2.8556102482646395e-08
sg38
F14.251945216113748
sg12
F0.0011273127051160204
ssg16
(dp661
g15
F0.99242885833944672
sg11
F0.00086014144801810236
sg38
F15.940582453668034
sg12
F0.00087450233946033938
sssS'25_30'
p662
(dp663
g7
(dp664
g12
F0.0010760505406466124
sg10
F1.0015620601849602
sg38
F27.581605161027937
sg11
F0.0010639301043205423
ssg13
(dp665
g15
F0.99315416197633377
sg11
F0.00093588768068676145
sg38
F27.565089145669191
sg12
F0.00094362032111985602
ssg16
(dp666
g15
F0.99160521495086007
sg11
F0.00048620702252491309
sg38
F27.598121176386684
sg12
F0.00049732621525953966
sssS'30_35'
p667
(dp668
g7
(dp669
g12
F0.00077205945342686687
sg10
F1.002206678917541
sg38
F32.559954338559969
sg11
F0.00076253234584520405
ssg13
(dp670
g15
F0.9936549477827944
sg11
F0.00062867010809801427
sg38
F32.547507506318837
sg12
F0.00063427976420707627
ssg16
(dp671
g15
F0.99146709823967338
sg11
F0.00041901441649647836
sg38
F32.572401170801101
sg12
F0.00042758401785558827
sssS'20_25'
p672
(dp673
g7
(dp674
g12
F0.0021843025938015161
sg10
F1.0046489135236385
sg38
F22.628246806619533
sg11
F0.0021599729930557232
ssg13
(dp675
g15
F0.99410564653742339
sg11
F0.0020379250591871863
sg38
F22.620021903701602
sg12
F0.0020586449562747825
ssg16
(dp676
g15
F0.98950552093941324
sg11
F0.00064117370668486545
sg38
F22.636471709537464
sg12
F0.00065539234000129066
sssS'60_90'
p677
(dp678
g7
(dp679
g12
F0.0033976616887682384
sg10
F0.97201030256320919
sg38
F69.680381360309781
sg11
F0.0033729712704023067
ssg13
(dp680
g15
F0.9631802701814316
sg11
F0.0030785323429209388
sg38
F70.026826667774586
sg12
F0.0030868667028722098
ssg16
(dp681
g15
F0.99091570083311598
sg11
F0.00133894100356442
sg38
F69.333936052844976
sg12
F0.0013827914774839974
sssS'50_60'
p682
(dp683
g7
(dp684
g12
F0.0013845841494432194
sg10
F0.99278418015134118
sg38
F53.848519814207961
sg11
F0.0013681163702915526
ssg13
(dp685
g15
F0.98475056482624157
sg11
F0.0011910469235312121
sg38
F53.899149890958604
sg12
F0.0011991486677577926
ssg16
(dp686
g15
F0.99190799421897013
sg11
F0.00065509609731791282
sg38
F53.797889737457311
sg12
F0.00067435488406680734
sssS'90_140'
p687
(dp688
g7
(dp689
g12
F0.012741123539119796
sg10
F1.0157404011144566
sg38
F106.32198220995858
sg11
F0.0062523884208890417
ssg13
(dp690
g15
F0.99999999951804575
sg11
F4.8195425428332328e-10
sg38
F107.34662078049421
sg12
F0.01078831047338049
ssg16
(dp691
g15
F0.98450351922682144
sg11
F0.0060601098441930073
sg38
F105.29734363942296
sg12
F0.0063005371086439351
sssS'40_50'
p692
(dp693
g7
(dp694
g12
F0.00041939875076410217
sg10
F0.99866059236771387
sg38
F44.282211870658614
sg11
F0.00041534068244503082
ssg13
(dp695
g15
F0.99165034939160412
sg11
F0.00033393464384756557
sg38
F44.267352856221436
sg12
F0.00033596720020485248
ssg16
(dp696
g15
F0.9929803548576106
sg11
F0.00024236211523261559
sg38
F44.297070885095799
sg12
F0.00024642063957979458
sssS'35_40'
p697
(dp698
g7
(dp699
g12
F0.00060660295589646694
sg10
F0.99820563734598655
sg38
F37.534687710092697
sg11
F0.00059974631389094933
ssg13
(dp700
g15
F0.99100432816298589
sg11
F0.00049159916151205482
sg38
F37.521045435409242
sg12
F0.00049496650371256331
ssg16
(dp701
g15
F0.99278574582873791
sg11
F0.00033654249629205655
sg38
F37.548329984776146
sg12
F0.0003436694920425848
sssS'140_300'
p702
(dp703
g7
(dp704
g12
F0.14747653530383159
sg10
F0.94882337650141479
sg38
F180.88732477382575
sg11
F0.051176623498585559
ssg13
(dp705
g15
F0.94882337650141446
sg11
F0.051176623498585538
sg38
F186.31251786041258
sg12
F0.14274938621713665
ssg16
(dp706
g15
F0.99999999999999967
sg11
F3.3306690738754696e-16
sg38
F175.46213168723889
sg12
F0.039037533788004605
ssssS'etapt20-500'
p707
(dp708
S'2.1_2.4'
p709
(dp710
g7
(dp711
g12
F0.00048554727418779597
sg325
F2.2459770718248926
sg10
F1.0014163531972193
sg11
F0.00048112701768259039
ssg13
(dp712
g15
F0.99352883128302416
sg325
F2.2464278867963876
sg11
F0.00041548049609102788
sg12
F0.00041917717629018852
ssg16
(dp713
g15
F0.99212363380225144
sg325
F2.2455262568533976
sg11
F0.00023467194511763502
sg12
F0.00023704049228691741
sssS'-0.2_0.2'
p714
(dp715
g7
(dp716
g12
F0.00018239855087494265
sg325
F-1.5295440897051495e-05
sg10
F0.9984803314857793
sg11
F0.00018130401580128294
ssg13
(dp717
g15
F0.9972789690975844
sg325
F-0.00010786544989640858
sg11
F0.00016769153223678045
sg12
F0.00016829136279635523
ssg16
(dp718
g15
F0.99879680916056979
sg325
F7.7274568102305588e-05
sg11
F6.845344662126653e-05
sg12
F6.9871777066574046e-05
sssS'-2.1_-1.6'
p719
(dp720
g7
(dp721
g12
F0.00025123731924413283
sg325
F-1.8407646865934035
sg10
F0.99717665194035199
sg11
F0.00024861661326406443
ssg13
(dp722
g15
F0.99390435261590582
sg325
F-1.8398901670059267
sg11
F0.0002224114370869843
sg12
F0.00022473643578336207
ssg16
(dp723
g15
F0.99671843567729068
sg325
F-1.8416392061808804
sg11
F0.00010957220974979409
sg12
F0.00011076697221152796
sssS'-1.2_-0.9'
p724
(dp725
g7
(dp726
g12
F0.0002362488359196473
sg325
F-1.0482496106395547
sg10
F0.99894173188994273
sg11
F0.00023224080643754512
ssg13
(dp727
g15
F0.99698354670832501
sg325
F-1.0486562438083795
sg11
F0.00021005169138101217
sg12
F0.00021372963083688537
ssg16
(dp728
g15
F0.99803974033809462
sg325
F-1.0478429774707299
sg11
F9.8097844566906529e-05
sg12
F9.9677338256409862e-05
sssS'1.6_2.1'
p729
(dp730
g7
(dp731
g12
F0.00024787784296181106
sg325
F1.8402987653531531
sg10
F0.99855899955965921
sg11
F0.00024674151677658255
ssg13
(dp732
g15
F0.99408093491051597
sg325
F1.83930861406872
sg11
F0.00021392314726526536
sg12
F0.00021457550862980385
ssg16
(dp733
g15
F0.995515473145685
sg325
F1.8412889166375863
sg11
F0.00012089470973245792
sg12
F0.00012204022082376203
sssS'0.9_1.2'
p734
(dp735
g7
(dp736
g12
F0.00024029437237085401
sg325
F1.0481072928708284
sg10
F0.99907358596805385
sg11
F0.00023643468916282156
ssg13
(dp737
g15
F0.99678361805183546
sg325
F1.0484123929316338
sg11
F0.00021152394265825368
sg12
F0.00021505976703483506
ssg16
(dp738
g15
F0.99770790865820003
sg325
F1.0478021928100227
sg11
F0.00010451432951180904
sg12
F0.00010605242861100238
sssS'-0.3_-0.2'
p739
(dp740
g7
(dp741
g12
F0.00046175662096921779
sg325
F-0.25001076671117722
sg10
F0.99595247776707585
sg11
F0.00045731088112375599
ssg13
(dp742
g15
F0.98888071358982699
sg325
F-0.25001306538734197
sg11
F0.00037709497074405861
sg12
F0.00037918222567751838
ssg16
(dp743
g15
F0.9928994963764699
sg325
F-0.25000846803501248
sg11
F0.00025395726777124547
sg12
F0.00025877368029913962
sssS'-0.6_-0.3'
p744
(dp745
g7
(dp746
g12
F0.00020698394319399355
sg325
F-0.44886268842871951
sg10
F0.99874172755912138
sg11
F0.00020567446188899841
ssg13
(dp747
g15
F0.99745264863369498
sg325
F-0.44878176864469843
sg11
F0.0001892708075240793
sg12
F0.00019003500008141596
ssg16
(dp748
g15
F0.99870929701858269
sg325
F-0.4489436082127406
sg11
F7.9909178438380605e-05
sg12
F8.1456839285513593e-05
sssS'1.2_1.6'
p749
(dp750
g7
(dp751
g12
F0.00023852750417561845
sg325
F1.3945115832032806
sg10
F0.99950479497376066
sg11
F0.00023733168309990465
ssg13
(dp752
g15
F0.99694303559672004
sg325
F1.3933109997895163
sg11
F0.00021346280990432078
sg12
F0.0002141773519001402
ssg16
(dp753
g15
F0.99743697139831344
sg325
F1.3957121666170449
sg11
F0.00010238150960026458
sg12
F0.00010364745123706753
sssS'0.2_0.3'
p754
(dp755
g7
(dp756
g12
F0.00047275740553449734
sg325
F0.24991648578505243
sg10
F0.99674446681369377
sg11
F0.0004681445349183205
ssg13
(dp757
g15
F0.98841803341217604
sg325
F0.24989674776192061
sg11
F0.00037713877791990965
sg12
F0.0003792917784995525
ssg16
(dp758
g15
F0.99164637108231468
sg325
F0.24993622380818423
sg11
F0.00027158581965995674
sg12
F0.00027643368086926898
sssS'0.6_0.9'
p759
(dp760
g7
(dp761
g12
F0.00021167843378128398
sg325
F0.74812647271172839
sg10
F0.99856829057602525
sg11
F0.00021029616752301513
ssg13
(dp762
g15
F0.99687738597275399
sg325
F0.74768653588562861
sg11
F0.00019058619279347671
sg12
F0.00019141426238403718
ssg16
(dp763
g15
F0.99830667104170123
sg325
F0.74856640953782816
sg11
F8.8170170938268875e-05
sg12
F8.966450818960635e-05
sssS'0.3_0.6'
p764
(dp765
g7
(dp766
g12
F0.00020341014966678762
sg325
F0.44896954205073414
sg10
F0.99903540730000817
sg11
F0.00020202400908761863
ssg13
(dp767
g15
F0.99776120324867112
sg325
F0.44898062576657427
sg11
F0.00018563974549002686
sg12
F0.00018640900931244457
ssg16
(dp768
g15
F0.99872456567402279
sg325
F0.44895845833489395
sg11
F7.911770518140842e-05
sg12
F8.083621566990233e-05
sssS'-0.9_-0.6'
p769
(dp770
g7
(dp771
g12
F0.00021244638531624297
sg325
F-0.74816773436672612
sg10
F0.99885499535891387
sg11
F0.00021105352924981734
ssg13
(dp772
g15
F0.99720095479376059
sg325
F-0.74786507806996005
sg11
F0.00019123272782232124
sg12
F0.0001920607620798945
ssg16
(dp773
g15
F0.99834406337973114
sg325
F-0.74847039066349219
sg11
F8.8567422971280404e-05
sg12
F9.0085244823204382e-05
sssS'-1.6_-1.2'
p774
(dp775
g7
(dp776
g12
F0.0002337655187367121
sg325
F-1.3940587552512125
sg10
F0.99904407052439648
sg11
F0.00023228635809527295
ssg13
(dp777
g15
F0.99764825154132719
sg325
F-1.3929829619008509
sg11
F0.00021544199051568231
sg12
F0.00021635316899398566
ssg16
(dp778
g15
F0.99860284543570077
sg325
F-1.3951345486015743
sg11
F8.6053382872569462e-05
sg12
F8.774819528436328e-05
sssS'-2.4_-2.1'
p779
(dp780
g7
(dp781
g12
F0.00049244759463413948
sg325
F-2.2461510858145184
sg10
F0.99870877376870659
sg11
F0.00048857090771679433
ssg13
(dp782
g15
F0.99110039744598288
sg325
F-2.246509061620634
sg11
F0.00042701352438836
sg12
F0.00042993966151935292
ssg16
(dp783
g15
F0.99238178684060929
sg325
F-2.2457931100084023
sg11
F0.00022994419848204749
sg12
F0.00023262706487975267
sssssS'Soft'
p784
(dp785
S'abseta_2p4pt20-500'
p786
(dp787
S'0.9_1.2'
p788
(dp789
g7
(dp790
g9
F1.0481780742701239
sg10
F0.992820255309114
sg11
F0.00037009270869827382
sg12
F0.00037090057262626061
ssg13
(dp791
g9
F1.0485343984279099
sg12
F0.00024443132263308055
sg11
F0.00024410975559338691
sg15
F0.94724049567208324
ssg16
(dp792
g9
F1.0478217501123377
sg12
F0.00025773965591733671
sg11
F0.00025697525318830696
sg15
F0.95409062275543566
sssS'2.1_2.4'
p793
(dp794
g7
(dp795
g9
F2.246064465598911
sg10
F1.0365152797708801
sg11
F0.00082089480818880707
sg12
F0.00082200574299325286
ssg13
(dp796
g9
F2.2464681601794805
sg12
F0.00045963629263462614
sg11
F0.0004593586328960743
sg15
F0.90360466400768202
ssg16
(dp797
g9
F2.2456607710183416
sg12
F0.00053040650102584926
sg11
F0.00052941239124078439
sg15
F0.87177167731422378
sssS'1.2_2.1'
p798
(dp799
g7
(dp800
g9
F1.6215386282002253
sg10
F0.9978653945205318
sg11
F0.00020497772968789061
sg12
F0.0002053273281672904
ssg13
(dp801
g9
F1.6181494594564068
sg12
F0.00014461788827956111
sg11
F0.00014445330706620854
sg15
F0.96825664962375968
ssg16
(dp802
g9
F1.6249277969440441
sg12
F0.00013733397738328618
sg11
F0.00013701374563670994
sg15
F0.9703279169120812
sssS'0_0.9'
p803
(dp804
g7
(dp805
g9
F0.44081897670426057
sg10
F0.98503877904517201
sg11
F0.00019368972878966692
sg12
F0.00019389920885479374
ssg13
(dp806
g9
F0.43954772753979343
sg12
F0.0001313610313077005
sg11
F0.00013129773179579169
sg15
F0.9436161276314553
ssg16
(dp807
g9
F0.4420902258687277
sg12
F0.00013331721600205507
sg11
F0.00013309330364354068
sg15
F0.95794820235009537
ssssS'ptabseta1.2-2.1'
p808
(dp809
S'10_20'
p810
(dp811
g7
(dp812
g12
F0.0037648464795134442
sg10
F1.0274437682370738
sg38
F15.333469659394478
sg11
F0.0037821126848449765
ssg13
(dp813
g15
F0.9910447380545484
sg11
F0.003569255935849848
sg38
F14.584143014908962
sg12
F0.0035511650300376419
ssg16
(dp814
g15
F0.96457321431324627
sg11
F0.00073431762532034407
sg38
F16.082796303879995
sg12
F0.00073918856699938093
sssS'25_30'
p815
(dp816
g7
(dp817
g12
F0.00076575454901834392
sg10
F1.0008736320671543
sg38
F27.597681632289092
sg11
F0.00076224328636559379
ssg13
(dp818
g15
F0.96801992599741005
sg11
F0.00055371482042364771
sg38
F27.581156759337365
sg12
F0.00055518082195663628
ssg16
(dp819
g15
F0.96717497092825799
sg11
F0.00048629591952790752
sg38
F27.614206505240819
sg12
F0.00048976618357099823
sssS'30_35'
p820
(dp821
g7
(dp822
g12
F0.00060422318068082672
sg10
F0.99985059726941372
sg38
F32.597706573946269
sg11
F0.00060141496759405033
ssg13
(dp823
g15
F0.96866112087978484
sg11
F0.00041135550730191014
sg38
F32.589704990115202
sg12
F0.00041255099235474447
ssg16
(dp824
g15
F0.96880586312114314
sg11
F0.00041270282801818969
sg38
F32.605708157777336
sg12
F0.00041535173983483055
sssS'20_25'
p825
(dp826
g7
(dp827
g12
F0.0013372953421788281
sg10
F1.0064089025564544
sg38
F22.693842052442925
sg11
F0.0013318060379100627
ssg13
(dp828
g15
F0.97094723533765781
sg11
F0.0011357775553452075
sg38
F22.735093678968937
sg12
F0.0011393658186934017
ssg16
(dp829
g15
F0.96476415587270958
sg11
F0.00059694266914311
sg38
F22.652590425916912
sg12
F0.00060145193704301103
sssS'60_90'
p830
(dp831
g7
(dp832
g12
F0.0013066330711369349
sg10
F0.98688587581434273
sg38
F69.745036218257198
sg11
F0.0012988608889701349
ssg13
(dp833
g15
F0.96596855903867018
sg11
F0.0010415469448702655
sg38
F69.998133957856368
sg12
F0.0010446549054580752
ssg16
(dp834
g15
F0.97880472576587207
sg11
F0.00073870247097217732
sg38
F69.491938478658028
sg12
F0.00074762566360321971
sssS'50_60'
p835
(dp836
g7
(dp837
g12
F0.00075249688399575958
sg10
F0.99457783454220383
sg38
F53.832347658447937
sg11
F0.00074834502164738601
ssg13
(dp838
g15
F0.96863516039583475
sg11
F0.00052764629719313099
sg38
F53.875131979800294
sg12
F0.00052925389003163827
ssg16
(dp839
g15
F0.97391589351243657
sg11
F0.00050550871800755499
sg38
F53.789563337095579
sg12
F0.0005097023602846012
sssS'90_140'
p840
(dp841
g7
(dp842
g12
F0.0048054135233970762
sg10
F1.0095174065044807
sg38
F106.34925741184577
sg11
F0.0047582861556483592
ssg13
(dp843
g15
F0.99370361652231154
sg11
F0.0041925072400097125
sg38
F107.29501577866968
sg12
F0.004218154051760294
ssg16
(dp844
g15
F0.98433529736062164
sg11
F0.0020684677379543309
sg38
F105.40349904502186
sg12
F0.0021202374586273211
sssS'40_50'
p845
(dp846
g7
(dp847
g12
F0.00029404763061121182
sg10
F0.99728250147298325
sg38
F44.355718897727861
sg11
F0.00029316570594603006
ssg13
(dp848
g15
F0.96840863686812084
sg11
F0.00018841958735946919
sg38
F44.35076503776196
sg12
F0.00018878956111951161
ssg16
(dp849
g15
F0.97104745690191518
sg11
F0.0002139813920397967
sg38
F44.360672757693763
sg12
F0.00021479922305243389
sssS'35_40'
p850
(dp851
g7
(dp852
g12
F0.00048377994296434446
sg10
F0.99795034979981678
sg38
F37.619519610940657
sg11
F0.00048169840975535104
ssg13
(dp853
g15
F0.96835313610745932
sg11
F0.00031531832918734045
sg38
F37.608613983469979
sg12
F0.00031619116436952879
ssg16
(dp854
g15
F0.97034199777745
sg11
F0.0003457427273804816
sg38
F37.630425238411341
sg12
F0.0003476846000770974
sssS'140_300'
p855
(dp856
g7
(dp857
g12
F0.028113061691675448
sg10
F0.96920829089535243
sg38
F179.41176156208206
sg11
F0.028533315917798955
ssg13
(dp858
g15
F0.96114824326002135
sg11
F0.027123807294200528
sg38
F185.17292809965349
sg12
F0.026100922782016898
ssg16
(dp859
g15
F0.99168388496977755
sg11
F0.0083161150302224485
sg38
F173.65059502451066
sg12
F0.010109004848706749
ssssS'vtxpt20-500'
p860
(dp861
S'4.5_6.5'
p862
(dp863
g7
(dp864
g91
F5.6254005899067554
sg10
F0.99661155588447747
sg11
F0.00063382857036018596
sg12
F0.00063791522948905273
ssg13
(dp865
g91
F5.623514758821849
sg12
F0.00038378702069804106
sg11
F0.00038198068054186166
sg15
F0.96061287403410867
ssg16
(dp866
g91
F5.6272864209916627
sg12
F0.00048202522234820302
sg11
F0.00047841360335127179
sg15
F0.96387892390188012
sssS'20.5_22.5'
p867
(dp868
g7
(dp869
g91
F21.444349209699325
sg10
F0.98385401872148637
sg11
F0.00062869686413053946
sg12
F0.00063057838551312622
ssg13
(dp870
g91
F21.442378013760965
sg12
F0.00047864646126126144
sg11
F0.00047766744739293193
sg15
F0.94488194281979476
ssg16
(dp871
g91
F21.446320405637685
sg12
F0.00037709954893810584
sg11
F0.00037538462471607323
sg15
F0.96038835522333321
sssS'16.5_18.5'
p872
(dp873
g7
(dp874
g91
F17.470386113453777
sg10
F0.98731526148064952
sg11
F0.00040948228783264034
sg12
F0.00041045395145028338
ssg13
(dp875
g91
F17.467666821635824
sg12
F0.00029382292453384879
sg11
F0.00029343357689141713
sg15
F0.94884484732241825
ssg16
(dp876
g91
F17.473105405271735
sg12
F0.00026656829985270843
sg11
F0.00026559059512860044
sg15
F0.96103532918093637
sssS'12.5_14.5'
p877
(dp878
g7
(dp879
g91
F13.498264770734185
sg10
F0.99039762609635729
sg11
F0.00033401836804420552
sg12
F0.00033481004035088187
ssg13
(dp880
g91
F13.494940763623823
sg12
F0.0002250643735525806
sg11
F0.00022473971430848872
sg15
F0.95305824829629504
ssg16
(dp881
g91
F13.501588777844544
sg12
F0.00023277946279244888
sg11
F0.00023202431475196963
sg15
F0.96229859925327665
sssS'22.5_24.5'
p882
(dp883
g7
(dp884
g91
F23.430869816795621
sg10
F0.98122536062201993
sg11
F0.00085164163438498182
sg12
F0.00085521590973460383
ssg13
(dp885
g91
F23.42952281335144
sg12
F0.00066548101401736484
sg11
F0.00066388923643441618
sg15
F0.94169519178648731
ssg16
(dp886
g91
F23.432216820239805
sg12
F0.00048959349187931601
sg11
F0.00048586355120864845
sg15
F0.95971346601715068
sssS'2.5_4.5'
p887
(dp888
g7
(dp889
g91
F3.7128305557827446
sg10
F0.99766191309450425
sg11
F0.0012247023639853243
sg12
F0.0012412284026812031
ssg13
(dp890
g91
F3.7115497076023392
sg12
F0.00072925548509290372
sg11
F0.00072324862956279665
sg15
F0.96155223762317132
ssg16
(dp891
g91
F3.7141114039631495
sg12
F0.00095055117236766051
sg11
F0.00093502959674430467
sg15
F0.9638056991076972
sssS'24.5_26.5'
p892
(dp893
g7
(dp894
g91
F25.418555794479367
sg10
F0.98168547882060342
sg11
F0.0012091005051295591
sg12
F0.0012161685249704871
ssg13
(dp895
g91
F25.417836614919331
sg12
F0.00096141354287843182
sg11
F0.00095700473025282643
sg15
F0.94145293211354997
ssg16
(dp896
g91
F25.419274974039407
sg12
F0.00067262219678823414
sg11
F0.00066696159504407834
sg15
F0.95901686683255327
sssS'18.5_20.5'
p897
(dp898
g7
(dp899
g91
F19.457677290581771
sg10
F0.98574291541861137
sg11
F0.00049514198509852407
sg12
F0.00049644626614164735
ssg13
(dp900
g91
F19.455656173877802
sg12
F0.00036544821486306586
sg11
F0.00036478956030677084
sg15
F0.94659956224414521
ssg16
(dp901
g91
F19.459698407285735
sg12
F0.00031056763985040306
sg11
F0.00030938626797490879
sg15
F0.96029050519947856
sssS'14.5_16.5'
p902
(dp903
g7
(dp904
g91
F15.48290046999999
sg10
F0.98926823365558869
sg11
F0.00036068742286749037
sg12
F0.00036151196266853258
ssg13
(dp905
g91
F15.480156144107458
sg12
F0.00025009570724023413
sg11
F0.0002497185610703542
sg15
F0.95091961252016743
ssg16
(dp906
g91
F15.485644795892522
sg12
F0.00024387863247249164
sg11
F0.0002431197039573354
sg15
F0.96123536586865455
sssS'0.5_2.5'
p907
(dp908
g7
(dp909
g91
F1.8668066640524801
sg10
F0.99511561212027166
sg11
F0.0039284800683643904
sg12
F0.0040757651675680665
ssg13
(dp910
g91
F1.8670516209823291
sg12
F0.0024145559993460474
sg11
F0.0023636610333269397
sg15
F0.95977435179158355
ssg16
(dp911
g91
F1.8665617071226313
sg12
F0.0031172902058975212
sg11
F0.0029758411659007826
sg15
F0.96448527196414169
sssS'8.5_10.5'
p912
(dp913
g7
(dp914
g91
F9.5368427404484279
sg10
F0.99424098660197524
sg11
F0.0003582891449130093
sg12
F0.00035982901980803524
ssg13
(dp915
g91
F9.5350348409277608
sg12
F0.00022614468964834259
sg11
F0.00022584196093585501
sg15
F0.95753930949952482
ssg16
(dp916
g91
F9.5386506399690933
sg12
F0.00026410974868408359
sg11
F0.0002624019498412091
sg15
F0.96308573314012524
sssS'28.5_30.5'
p917
(dp918
g7
(dp919
g91
F29.397666976606047
sg10
F0.97892245344546691
sg11
F0.0028664258365005348
sg12
F0.0028909656290398221
ssg13
(dp920
g91
F29.396425829718101
sg12
F0.0023581160188518762
sg11
F0.0023448462650247867
sg15
F0.93773392155951851
ssg16
(dp921
g91
F29.398908123493992
sg12
F0.0014833190477756269
sg11
F0.0014594758737494005
sg15
F0.95792462238354115
sssS'10.5_12.5'
p922
(dp923
g7
(dp924
g91
F11.514360003495106
sg10
F0.99247713239411772
sg11
F0.00033213903113608358
sg12
F0.00033282671029620183
ssg13
(dp925
g91
F11.511358647607485
sg12
F0.00021605425977668088
sg11
F0.00021597358567941117
sg15
F0.95556498590025951
ssg16
(dp926
g91
F11.517361359382729
sg12
F0.00023845316712085442
sg11
F0.00023762353630988643
sg15
F0.96280806349178405
sssS'26.5_28.5'
p927
(dp928
g7
(dp929
g91
F27.406691720087597
sg10
F0.97836315029514653
sg11
F0.0018365382824880193
sg12
F0.001848851396696356
ssg13
(dp930
g91
F27.40280391719034
sg12
F0.0014873211020890395
sg11
F0.0014804344287693903
sg15
F0.93669168607384412
ssg16
(dp931
g91
F27.410579522984854
sg12
F0.00098098648895321092
sg11
F0.0009696550832402536
sg15
F0.95740695649797192
sssS'6.5_8.5'
p932
(dp933
g7
(dp934
g91
F7.5726703317251669
sg10
F0.99509064003543779
sg11
F0.00043562502153203248
sg12
F0.00043806247830786203
ssg13
(dp935
g91
F7.5707151302199227
sg12
F0.00026935775575570977
sg11
F0.00026871455344353799
sg15
F0.95891899022194438
ssg16
(dp936
g91
F7.574625533230412
sg12
F0.00032663837946038664
sg11
F0.0003241064851390638
sg15
F0.963649894433531
ssssS'ptabseta<0.9'
p937
(dp938
S'10_20'
p939
(dp940
g7
(dp941
g12
F0.0050002248555324341
sg10
F0.96572099407007739
sg38
F16.443761959768526
sg11
F0.0050248914454454211
ssg13
(dp942
g15
F0.9223273931280036
sg11
F0.0045935872954935833
sg38
F15.832818333992417
sg12
F0.0045646779151588641
ssg16
(dp943
g15
F0.9550661099753156
sg11
F0.001438687278471112
sg38
F17.054705585544635
sg12
F0.0014532209921460329
sssS'25_30'
p944
(dp945
g7
(dp946
g12
F0.00083580581447469592
sg10
F0.98553137242578959
sg38
F27.715517672682243
sg11
F0.00083274336330180058
ssg13
(dp947
g15
F0.94076071684696616
sg11
F0.00059399593248613892
sg38
F27.694822137938097
sg12
F0.00059485688431589129
ssg16
(dp948
g15
F0.95457206454156318
sg11
F0.0005360132550550229
sg38
F27.736213207426388
sg12
F0.00053949072617291954
sssS'30_35'
p949
(dp950
g7
(dp951
g12
F0.000582892613206693
sg10
F0.98620300594419796
sg38
F32.670654833801805
sg11
F0.00057932083487943829
ssg13
(dp952
g15
F0.94272273358077063
sg11
F0.0003835673461035561
sg38
F32.66111238891515
sg12
F0.00038430124197144438
ssg16
(dp953
g15
F0.95591143800885192
sg11
F0.00040502235156642549
sg38
F32.680197278688453
sg12
F0.0004091011703928714
sssS'20_25'
p954
(dp955
g7
(dp956
g12
F0.0017061286426937109
sg10
F0.98207413057489301
sg38
F22.844475262401168
sg11
F0.0017022084943187328
ssg13
(dp957
g15
F0.93801607320566194
sg11
F0.0014366009936771435
sg38
F22.847877365059006
sg12
F0.0014375587602112033
ssg16
(dp958
g15
F0.95513774775490723
sg11
F0.00077517417186016434
sg38
F22.841073159743335
sg12
F0.00078145960133228266
sssS'60_90'
p959
(dp960
g7
(dp961
g12
F0.00103288297785911
sg10
F0.97394705819815908
sg38
F69.787523699720353
sg11
F0.0010276075436701395
ssg13
(dp962
g15
F0.9440955882017692
sg11
F0.00078629732767386052
sg38
F70.03990615606476
sg12
F0.00078833083530588431
ssg16
(dp963
g15
F0.96935000753365763
sg11
F0.00062789291637011121
sg38
F69.535141243375946
sg12
F0.00063375193016876102
sssS'50_60'
p964
(dp965
g7
(dp966
g12
F0.00068186657028168119
sg10
F0.98173670718760142
sg38
F53.85822092952273
sg11
F0.00067892356889122406
ssg13
(dp967
g15
F0.9445851543643845
sg11
F0.0004610196774843572
sg38
F53.905870990085269
sg12
F0.00046219916304935022
ssg16
(dp968
g15
F0.96215731514242187
sg11
F0.00047139641548931327
sg38
F53.810570868960198
sg12
F0.00047426935934626404
sssS'90_140'
p969
(dp970
g7
(dp971
g12
F0.003033026825961271
sg10
F0.97727539520980677
sg38
F106.37001158933256
sg11
F0.0030089537552929146
ssg13
(dp972
g15
F0.95690888425000531
sg11
F0.0025596635375595353
sg38
F107.08200669031851
sg12
F0.0025666004435449994
ssg16
(dp973
g15
F0.97915990614351944
sg11
F0.0014928603111455916
sg38
F105.65801648834663
sg12
F0.0015288587279301139
sssS'40_50'
p974
(dp975
g7
(dp976
g12
F0.00028729842992041037
sg10
F0.98587916220791094
sg38
F44.317627699864275
sg11
F0.00028748960371900582
ssg13
(dp977
g15
F0.94351304124806812
sg11
F0.00018053608193525911
sg38
F44.321602615060733
sg12
F0.00018076014663534126
ssg16
(dp978
g15
F0.95702706519837344
sg11
F0.00021059402776393352
sg38
F44.313652784667816
sg12
F0.00021014996612719194
sssS'35_40'
p979
(dp980
g7
(dp981
g12
F0.00045103156207972745
sg10
F0.98722816383035061
sg38
F37.622781823763951
sg11
F0.00044889215871918325
ssg13
(dp982
g15
F0.94333483620631742
sg11
F0.00028426231427045208
sg38
F37.619272838318629
sg12
F0.00028463105033417268
ssg16
(dp983
g15
F0.95553882148810332
sg11
F0.00032537079665950118
sg38
F37.626290809209273
sg12
F0.00032780268921933588
sssS'140_300'
p984
(dp985
g7
(dp986
g12
F0.0165778523061723
sg10
F0.98492143754227934
sg38
F179.12930540174807
sg11
F0.016726481918724095
ssg13
(dp987
g15
F0.94907161898112014
sg11
F0.014918127378567698
sg38
F184.8175112154305
sg12
F0.014661649071526247
ssg16
(dp988
g15
F0.96360134200082304
sg11
F0.0061949228897183279
sg38
F173.44109958806567
sg12
F0.0064389192824561162
ssssS'ptabseta0.9-1.2'
p989
(dp990
S'10_20'
p991
(dp992
g7
(dp993
g12
F0.0068898919742254395
sg10
F0.99989355132346247
sg38
F15.788483413581961
sg11
F0.0069202510755949805
ssg13
(dp994
g15
F0.94698916532413391
sg11
F0.0063475132585277174
sg38
F15.040671933000242
sg12
F0.0063132537236847723
ssg16
(dp995
g15
F0.94708998179925841
sg11
F0.0016327510125158252
sg38
F16.536294894163678
sg12
F0.001650324020429739
sssS'25_30'
p996
(dp997
g7
(dp998
g12
F0.0015339802173003406
sg10
F0.99286086026554254
sg38
F27.64303277124737
sg11
F0.0015238085682901304
ssg13
(dp999
g15
F0.94579830734952364
sg11
F0.0010634807717153196
sg38
F27.62349251305551
sg12
F0.0010670603424127272
ssg16
(dp1000
g15
F0.95259904504299631
sg11
F0.00099507617490435306
sg38
F27.66257302943923
sg12
F0.0010055205052537785
sssS'30_35'
p1001
(dp1002
g7
(dp1003
g12
F0.0011816325990431516
sg10
F0.9945212084559506
sg38
F32.657675850565795
sg11
F0.0011735884858090856
ssg13
(dp1004
g15
F0.94739971066332873
sg11
F0.00075557919684426857
sg38
F32.644925652495751
sg12
F0.00075829866889320604
ssg16
(dp1005
g15
F0.95261891109815489
sg11
F0.00082854497043726967
sg38
F32.670426048635839
sg12
F0.00083648499754660009
sssS'20_25'
p1006
(dp1007
g7
(dp1008
g12
F0.0026526591831329081
sg10
F0.99321984843077982
sg38
F22.724227177578065
sg11
F0.0026422490686710382
ssg13
(dp1009
g15
F0.9456717069451146
sg11
F0.0022020402763469294
sg38
F22.771168665970904
sg12
F0.0022055059681666241
ssg16
(dp1010
g15
F0.95212727417722465
sg11
F0.0012248795416917831
sg38
F22.677285689185226
sg12
F0.0012391526806961059
sssS'60_90'
p1011
(dp1012
g7
(dp1013
g12
F0.0020337754391445274
sg10
F0.98431947321525137
sg38
F69.73638516333645
sg11
F0.0020152940573436632
ssg13
(dp1014
g15
F0.95090675162455973
sg11
F0.0014795571816955918
sg38
F69.973069869228254
sg12
F0.0014864602429067921
ssg16
(dp1015
g15
F0.96605500297423763
sg11
F0.0012855719692094441
sg38
F69.499700457444646
sg12
F0.0013052372305835556
sssS'50_60'
p1016
(dp1017
g7
(dp1018
g12
F0.0013503234543647167
sg10
F0.99288271119597482
sg38
F53.824298391161946
sg11
F0.0013406806733263987
ssg13
(dp1019
g15
F0.94804832482291901
sg11
F0.00085806104462144187
sg38
F53.860929489828237
sg12
F0.00086203642588649778
ssg16
(dp1020
g15
F0.95484422694897098
sg11
F0.00095680604307600851
sg38
F53.787667292495655
sg12
F0.00096568109152475124
sssS'90_140'
p1021
(dp1022
g7
(dp1023
g12
F0.0062653979030525076
sg10
F0.99263693357517002
sg38
F106.25695347732706
sg11
F0.0061810374242855124
ssg13
(dp1024
g15
F0.96158252016354018
sg11
F0.0050030543525249327
sg38
F107.10761639311517
sg12
F0.0050228507841761473
ssg16
(dp1025
g15
F0.96871523478399957
sg11
F0.0033140184480656733
sg38
F105.40629056153895
sg12
F0.0034323862231991804
sssS'40_50'
p1026
(dp1027
g7
(dp1028
g12
F0.00054231633575224062
sg10
F0.99353067315642052
sg38
F44.311004357985297
sg11
F0.00054042192631260412
ssg13
(dp1029
g15
F0.94740151682516216
sg11
F0.00032830562573497749
sg38
F44.318436370217356
sg12
F0.00032912993824462473
ssg16
(dp1030
g15
F0.95357047590216082
sg11
F0.0003998028073359219
sg38
F44.303572345753231
sg12
F0.00040147570720389477
sssS'35_40'
p1031
(dp1032
g7
(dp1033
g12
F0.00087570481688207245
sg10
F0.99334805058412368
sg38
F37.661431249084124
sg11
F0.00087130266746841053
ssg13
(dp1034
g15
F0.94674408801608978
sg11
F0.00054115216540983452
sg38
F37.651340578729076
sg12
F0.00054288731176939647
ssg16
(dp1035
g15
F0.9530839542689703
sg11
F0.0006341063959455969
sg38
F37.671521919439172
sg12
F0.00063817273933815689
sssS'140_300'
p1036
(dp1037
g7
(dp1038
g12
F0.033666555036582869
sg10
F0.9990059484608188
sg38
F178.11850323889246
sg11
F0.027155361148859435
ssg13
(dp1039
g15
F0.97556223873019843
sg11
F0.024437761269801572
sg38
F184.51027458906174
sg12
F0.030943079270574901
ssg16
(dp1040
g15
F0.97653296282495572
sg11
F0.010306153341893864
sg38
F171.72673188872315
sg12
F0.011119164744879799
ssssS'ptabseta2.1-2.4'
p1041
(dp1042
S'10_20'
p1043
(dp1044
g7
(dp1045
g12
F0.0076559435130835757
sg10
F1.0515061718944485
sg38
F15.14510709255724
sg11
F0.0077028398180076663
ssg13
(dp1046
g15
F0.90746431866222466
sg11
F0.0063059353576405382
sg38
F14.327273280607958
sg12
F0.00626008319259291
ssg16
(dp1047
g15
F0.86301378243675875
sg11
F0.002000872805291997
sg38
F15.962940904506519
sg12
F0.0020098314589049363
sssS'25_30'
p1048
(dp1049
g7
(dp1050
g12
F0.0025530425923513747
sg10
F1.0417249287299979
sg38
F27.587504461620128
sg11
F0.0025440036494143621
ssg13
(dp1051
g15
F0.90659196814310505
sg11
F0.0014455421741983467
sg38
F27.575021344189938
sg12
F0.001448265002389412
ssg16
(dp1052
g15
F0.87027961330287251
sg11
F0.0016097871773474259
sg38
F27.599987579050318
sg12
F0.0016175008224455119
sssS'30_35'
p1053
(dp1054
g7
(dp1055
g12
F0.0021926409009527014
sg10
F1.0422878726987976
sg38
F32.566014068486304
sg11
F0.0021842739760955243
ssg13
(dp1056
g15
F0.9081147065112245
sg11
F0.0011526908727349714
sg38
F32.554687640245177
sg12
F0.0011557939778893084
ssg16
(dp1057
g15
F0.87127052928270343
sg11
F0.0014528502640825233
sg38
F32.57734049672743
sg12
F0.0014593730056663512
sssS'20_25'
p1058
(dp1059
g7
(dp1060
g12
F0.0037508381391918532
sg10
F1.0509090579874167
sg38
F22.641193369437776
sg11
F0.0037428224564022591
ssg13
(dp1061
g15
F0.90438415081326773
sg11
F0.0025428197013223396
sg38
F22.64501848377849
sg12
F0.0025435624394890295
ssg16
(dp1062
g15
F0.86057318084710666
sg11
F0.0018812774365172956
sg38
F22.637368255097062
sg12
F0.0018910481773764631
sssS'60_90'
p1063
(dp1064
g7
(dp1065
g12
F0.0059920459413908252
sg10
F1.0251671651173362
sg38
F69.664607465977468
sg11
F0.005975096658479998
ssg13
(dp1066
g15
F0.9226857296229658
sg11
F0.0040216860719787563
sg38
F69.997438825194024
sg12
F0.0040180310497481397
ssg16
(dp1067
g15
F0.90003441489209146
sg11
F0.0034826040717233671
sg38
F69.331776106760913
sg12
F0.0035089644611521168
sssS'50_60'
p1068
(dp1069
g7
(dp1070
g12
F0.0034574422631456713
sg10
F1.0266177486339958
sg38
F53.844100280109089
sg11
F0.0034435769686127359
ssg13
(dp1071
g15
F0.90223298187970902
sg11
F0.001977641840949367
sg38
F53.89303122319501
sg12
F0.0019821924080023847
ssg16
(dp1072
g15
F0.8788402334561316
sg11
F0.0022314021653879819
sg38
F53.795169337023168
sg12
F0.0022432518513518431
sssS'90_140'
p1073
(dp1074
g7
(dp1075
g12
F0.024192726752446055
sg10
F1.0938602069874217
sg38
F106.29817689357658
sg11
F0.012758207682890361
ssg13
(dp1076
g15
F0.99999999998296407
sg11
F1.7035928223663177e-11
sg38
F107.33782488168114
sg12
F0.01873077047064025
ssg16
(dp1077
g15
F0.91419359950668999
sg11
F0.010662671272225524
sg38
F105.25852890547202
sg12
F0.010751502470394409
sssS'40_50'
p1078
(dp1079
g7
(dp1080
g12
F0.0013514895910079437
sg10
F1.0322767678245812
sg38
F44.288046372923219
sg11
F0.0013479582011606424
ssg13
(dp1081
g15
F0.90771203266676692
sg11
F0.00070647949683870189
sg38
F44.271913780710968
sg12
F0.00070797598633059804
ssg16
(dp1082
g15
F0.87933009921329353
sg11
F0.00092198869818894231
sg38
F44.304178965135478
sg12
F0.00092465884021826104
sssS'35_40'
p1083
(dp1084
g7
(dp1085
g12
F0.0019425644699722221
sg10
F1.0362134184579543
sg38
F37.543462633090442
sg11
F0.0019359671680494225
ssg13
(dp1086
g15
F0.90498100836298945
sg11
F0.0010037130942139765
sg38
F37.530492450629922
sg12
F0.00100622773148649
ssg16
(dp1087
g15
F0.87335387888504767
sg11
F0.0013130782267272835
sg38
F37.556432815550963
sg12
F0.0013181972489602091
sssS'140_300'
p1088
(dp1089
g7
(dp1090
g12
F0.14591404784648432
sg10
F0.88115227266886775
sg38
F180.63550023814659
sg11
F0.11884772733113276
ssg13
(dp1091
g15
F0.88115227266886731
sg11
F0.11884772733113269
sg38
F185.87001833334077
sg12
F0.1435909270444708
ssg16
(dp1092
g15
F0.99999999999999956
sg11
F4.4408920985006262e-16
sg38
F175.40098214295242
sg12
F0.029431537262619746
ssssS'etapt20-500'
p1093
(dp1094
S'2.1_2.4'
p1095
(dp1096
g7
(dp1097
g12
F0.0012095480715005275
sg325
F2.2459770718248926
sg10
F1.0519611894558458
sg11
F0.001207066225311767
ssg13
(dp1098
g15
F0.90700053311225715
sg325
F2.2464278867963876
sg11
F0.00063673125733185664
sg12
F0.00063771513549027022
ssg16
(dp1099
g15
F0.8621996155404047
sg325
F2.2455262568533976
sg11
F0.00078256045145462614
sg12
F0.00078440855638729496
sssS'-0.2_0.2'
p1100
(dp1101
g7
(dp1102
g12
F0.00042792056648991323
sg325
F-1.5295440897051495e-05
sg10
F0.97678432064271858
sg11
F0.00042697788177488265
ssg13
(dp1103
g15
F0.93265806308482824
sg325
F-0.00010786544989640858
sg11
F0.00029116788054460842
sg12
F0.00029145766438375364
ssg16
(dp1104
g15
F0.95482497351221252
sg325
F7.7274568102305588e-05
sg11
F0.00029214474696407381
sg12
F0.00029315809468023161
sssS'-2.1_-1.6'
p1105
(dp1106
g7
(dp1107
g12
F0.00038872025881146977
sg325
F-1.8407646865934035
sg10
F0.99532062370910923
sg11
F0.00038741046263072928
ssg13
(dp1108
g15
F0.97048553074130528
sg325
F-1.8398901670059267
sg11
F0.00028297007320522092
sg12
F0.00028355181575905405
ssg16
(dp1109
g15
F0.97504814792719274
sg325
F-1.8416392061808804
sg11
F0.00025141305826750467
sg12
F0.00025268841272176588
sssS'-1.2_-0.9'
p1110
(dp1111
g7
(dp1112
g12
F0.00051918101599900894
sg325
F-1.0482496106395547
sg10
F0.99443685511692637
sg11
F0.00051750346666266272
ssg13
(dp1113
g15
F0.95004469304156647
sg325
F-1.0486562438083795
sg11
F0.00033772127292540122
sg12
F0.00033836372929232521
ssg16
(dp1114
g15
F0.95535949633509887
sg325
F-1.0478429774707299
sg11
F0.00036309825938153937
sg12
F0.00036470016984158868
sssS'1.6_2.1'
p1115
(dp1116
g7
(dp1117
g12
F0.00036495832127741491
sg325
F1.8402987653531531
sg10
F0.99997186179786834
sg11
F0.00036356905642441061
ssg13
(dp1118
g15
F0.97681224537113143
sg325
F1.83930861406872
sg11
F0.00026032368450810354
sg12
F0.00026093016929072346
ssg16
(dp1119
g15
F0.97683973188495743
sg325
F1.8412889166375863
sg11
F0.0002415894506458247
sg12
F0.00024293033002923875
sssS'0.9_1.2'
p1120
(dp1121
g7
(dp1122
g12
F0.00053358123481349361
sg325
F1.0481072928708284
sg10
F0.99192665277696335
sg11
F0.00053050418877629505
ssg13
(dp1123
g15
F0.94549239165765875
sg325
F1.0484123929316338
sg11
F0.00034576328309143421
sg12
F0.00034834576876809987
ssg16
(dp1124
g15
F0.95318780779878343
sg325
F1.0478021928100227
sg11
F0.00037198832217090466
sg12
F0.00037360002139010884
sssS'-0.3_-0.2'
p1125
(dp1126
g7
(dp1127
g12
F0.00085896037236397741
sg325
F-0.25001076671117722
sg10
F0.98167261044921827
sg11
F0.00085474584814293627
ssg13
(dp1128
g15
F0.93582640648135174
sg325
F-0.25001306538734197
sg11
F0.00057047951354261071
sg12
F0.00057212638004778865
ssg16
(dp1129
g15
F0.95329786786361792
sg325
F-0.25000846803501248
sg11
F0.00059266682049522173
sg12
F0.00059675144815321578
sssS'-0.6_-0.3'
p1130
(dp1131
g7
(dp1132
g12
F0.00046228673353935091
sg325
F-0.44886268842871951
sg10
F0.98569686682316482
sg11
F0.00046074093562953908
ssg13
(dp1133
g15
F0.94729113697970035
sg325
F-0.44878176864469843
sg11
F0.00031201660744479892
sg12
F0.00031257551396675034
ssg16
(dp1134
g15
F0.96103697684741196
sg325
F-0.4489436082127406
sg11
F0.00031873691541460568
sg12
F0.00032029711845162962
sssS'1.2_1.6'
p1135
(dp1136
g7
(dp1137
g12
F0.00044952207210678197
sg325
F1.3945115832032806
sg10
F0.99874232307930288
sg11
F0.00044804058555400928
ssg13
(dp1138
g15
F0.96238310441725772
sg325
F1.3933109997895163
sg11
F0.00030146534110603822
sg12
F0.00030211985458576717
ssg16
(dp1139
g15
F0.96359499560412831
sg325
F1.3957121666170449
sg11
F0.00030943472003784682
sg12
F0.00031079185821955579
sssS'0.2_0.3'
p1140
(dp1141
g7
(dp1142
g12
F0.00086067831261186091
sg325
F0.24991648578505243
sg10
F0.98106477147242555
sg11
F0.00085611176856966939
ssg13
(dp1143
g15
F0.935052243327813
sg325
F0.24989674776192061
sg11
F0.00057116823259214774
sg12
F0.00057297015283569788
ssg16
(dp1144
g15
F0.95309939824303869
sg325
F0.24993622380818423
sg11
F0.00059396194797955494
sg12
F0.00059837113735369569
sssS'0.6_0.9'
p1145
(dp1146
g7
(dp1147
g12
F0.00047522928255016098
sg325
F0.74812647271172839
sg10
F0.99247404073790968
sg11
F0.00047346897764584069
ssg13
(dp1148
g15
F0.95138185815308818
sg325
F0.74768653588562861
sg11
F0.00030943220497447858
sg12
F0.0003100460871944909
ssg16
(dp1149
g15
F0.95859621421002683
sg325
F0.74856640953782816
sg11
F0.00033455044047596584
sg12
F0.00033629727235176988
sssS'0.3_0.6'
p1150
(dp1151
g7
(dp1152
g12
F0.00046503454936341513
sg325
F0.44896954205073414
sg10
F0.98593405570457915
sg11
F0.00046359078070178268
ssg13
(dp1153
g15
F0.94630680527503275
sg325
F0.44898062576657427
sg11
F0.00031209490882438441
sg12
F0.0003125733118269034
ssg16
(dp1154
g15
F0.95980740273625342
sg325
F0.44895845833489395
sg11
F0.00032167489027249503
sg12
F0.00032316854609009386
sssS'-0.9_-0.6'
p1155
(dp1156
g7
(dp1157
g12
F0.00046419868395298906
sg325
F-0.74816773436672612
sg10
F0.99434322898761729
sg11
F0.00046246633486433784
ssg13
(dp1158
g15
F0.95515185017467252
sg325
F-0.74786507806996005
sg11
F0.00030360472001454453
sg12
F0.00030421512552710514
ssg16
(dp1159
g15
F0.96058566330979378
sg325
F-0.74847039066349219
sg11
F0.00032614734050465729
sg12
F0.00032786429533938433
sssS'-1.6_-1.2'
p1160
(dp1161
g7
(dp1162
g12
F0.00043987231104258709
sg325
F-1.3940587552512125
sg10
F0.99813610117263052
sg11
F0.00043833022931355687
ssg13
(dp1163
g15
F0.96407909522894775
sg325
F-1.3929829619008509
sg11
F0.00030073051734298153
sg12
F0.00030139106172443901
ssg16
(dp1164
g15
F0.96587939670384437
sg325
F-1.3951345486015743
sg11
F0.00029856121302036619
sg12
F0.00030001287716540054
sssS'-2.4_-2.1'
p1165
(dp1166
g7
(dp1167
g12
F0.0011215635080109019
sg325
F-2.2461510858145184
sg10
F1.0217657794058046
sg11
F0.0011190410776234828
ssg13
(dp1168
g15
F0.90183654218679321
sg325
F-2.246509061620634
sg11
F0.00064809043429777367
sg12
F0.0006491888319785159
ssg16
(dp1169
g15
F0.88262551003738365
sg325
F-2.2457931100084023
sg11
F0.00072945408196495244
sg12
F0.00073140665302917412
sssssS'HighPt'
p1170
(dp1171
S'abseta_2p4pt20-500'
p1172
(dp1173
S'0.9_1.2'
p1174
(dp1175
g7
(dp1176
g9
F1.0481816478300359
sg10
F0.99420737876876319
sg11
F0.0003254184194899313
sg12
F0.00032630102271456447
ssg13
(dp1177
g9
F1.0485376151129471
sg12
F0.00022421927348793169
sg11
F0.0002238103631474696
sg15
F0.96123686623519622
ssg16
(dp1178
g9
F1.0478256805471244
sg12
F0.00022322404610871732
sg11
F0.00022241929899383686
sg15
F0.96683738902199856
sssS'2.1_2.4'
p1179
(dp1180
g7
(dp1181
g9
F2.2460856247041114
sg10
F0.99629593522931781
sg11
F0.00055613635287399645
sg12
F0.00055729203075383831
ssg13
(dp1182
g9
F2.2465164625149909
sg12
F0.00039411658583612529
sg11
F0.00039366418027016826
sg15
F0.94949094738074047
ssg16
(dp1183
g9
F2.2456547868932315
sg12
F0.00035734472203123737
sg11
F0.00035619782824420894
sg15
F0.95302099888844349
sssS'1.2_2.1'
p1184
(dp1185
g7
(dp1186
g9
F1.6214954767204319
sg10
F0.99684170949215856
sg11
F0.00023422908776224414
sg12
F0.00023456478518798086
ssg13
(dp1187
g9
F1.6181145508999761
sg12
F0.00015734214187578717
sg11
F0.0001571824938075199
sg15
F0.95349419404607105
ssg16
(dp1188
g9
F1.6248764025408875
sg12
F0.00016045362651403004
sg11
F0.00016015929751833248
sg15
F0.95651514675467286
sssS'0_0.9'
p1189
(dp1190
g7
(dp1191
g9
F0.44081779574938673
sg10
F0.99296449654379992
sg11
F0.00017714217027540283
sg12
F0.0001774179572889473
ssg13
(dp1192
g9
F0.43954039449671839
sg12
F0.00012033330960770579
sg11
F0.00012023050400429029
sg15
F0.95822165146779659
ssg16
(dp1193
g9
F0.44209519700205502
sg12
F0.00012265313170697515
sg11
F0.00012237858737620361
sg15
F0.96501098962054299
ssssS'ptabseta1.2-2.1'
p1194
(dp1195
S'10_20'
p1196
(dp1197
g7
(dp1198
g12
F0.0037780242314813949
sg10
F1.0186080471215668
sg38
F15.333404391158767
sg11
F0.0037830048232790547
ssg13
(dp1199
g15
F0.97500362265316709
sg11
F0.0035341031889263852
sg38
F14.584176438548248
sg12
F0.0035280630280410132
ssg16
(dp1200
g15
F0.95719214609425152
sg11
F0.00077439190364046826
sg38
F16.082632343769287
sg12
F0.00077944917102162968
sssS'25_30'
p1201
(dp1202
g7
(dp1203
g12
F0.00083719599307025406
sg10
F0.99852047573006186
sg38
F27.597605165380401
sg11
F0.00083383386517228513
ssg13
(dp1204
g15
F0.95548331741500814
sg11
F0.00058452753946209766
sg38
F27.581195177825212
sg12
F0.00058589859652474253
ssg16
(dp1205
g15
F0.95689907281712239
sg11
F0.00054391038242435704
sg38
F27.614015152935593
sg12
F0.00054716417342718846
sssS'30_35'
p1206
(dp1207
g7
(dp1208
g12
F0.00068266291831021357
sg10
F0.99713858196319083
sg38
F32.597814538834307
sg11
F0.00067990353034951402
ssg13
(dp1209
g15
F0.95409080719219164
sg11
F0.00044677022511574352
sg38
F32.589781269272294
sg12
F0.00044783303438053566
ssg16
(dp1210
g15
F0.95682869407555604
sg11
F0.0004742345986089554
sg38
F32.605847808396319
sg12
F0.00047686916764700575
sssS'20_25'
p1211
(dp1212
g7
(dp1213
g12
F0.0013971372575885173
sg10
F1.0006270937415775
sg38
F22.693885966864386
sg11
F0.0013935178611892242
ssg13
(dp1214
g15
F0.95713906087369161
sg11
F0.001163284548544607
sg38
F22.735177700787862
sg12
F0.0011647733115633628
ssg16
(dp1215
g15
F0.95653922111455714
sg11
F0.00065038914129294156
sg38
F22.652594232940913
sg12
F0.00065480874069398444
sssS'60_90'
p1216
(dp1217
g7
(dp1218
g12
F0.0014863565578070467
sg10
F0.99203440309403812
sg38
F69.739895713620612
sg11
F0.0014784310524921984
ssg13
(dp1219
g15
F0.95105635572996805
sg11
F0.0010865210895736467
sg38
F69.99399198689494
sg12
F0.0010893194794042399
ssg16
(dp1220
g15
F0.95869291706389981
sg11
F0.00091746484430995756
sg38
F69.485799440346284
sg12
F0.00092601254743203735
sssS'50_60'
p1221
(dp1222
g7
(dp1223
g12
F0.00088714871977122183
sg10
F0.99676630905358665
sg38
F53.831529771405442
sg11
F0.00088297581957196079
ssg13
(dp1224
g15
F0.95315139346888167
sg11
F0.0005762418734035317
sg38
F53.874348798347938
sg12
F0.00057811289553165262
ssg16
(dp1225
g15
F0.95624358970748458
sg11
F0.00061913683430467109
sg38
F53.788710744462946
sg12
F0.00062286012277098428
sssS'90_140'
p1226
(dp1227
g7
(dp1228
g12
F0.0051841191487989619
sg10
F1.0201435871157301
sg38
F106.35023202327108
sg11
F0.0051521987885455051
ssg13
(dp1229
g15
F0.98095979312797343
sg11
F0.0042343683449123743
sg38
F107.2957339173381
sg12
F0.0042398058644588189
ssg16
(dp1230
g15
F0.96158992274946153
sg11
F0.0025212238761111792
sg38
F105.40473012920405
sg12
F0.0025701057825358292
sssS'40_50'
p1231
(dp1232
g7
(dp1233
g12
F0.00035003761530148292
sg10
F0.99747174442769559
sg38
F44.355669651370903
sg11
F0.00034907780347853527
ssg13
(dp1234
g15
F0.95349505871430718
sg11
F0.0002133572657750714
sg38
F44.350783510529219
sg12
F0.0002137385282503213
ssg16
(dp1235
g15
F0.95591184817107755
sg11
F0.00025721627868022435
sg38
F44.360555792212594
sg12
F0.0002580945944468689
sssS'35_40'
p1236
(dp1237
g7
(dp1238
g12
F0.00056419183547037693
sg10
F0.99659428393676452
sg38
F37.619552021294311
sg11
F0.00056196597505651469
ssg13
(dp1239
g15
F0.9531165178148906
sg11
F0.00035069311693844077
sg38
F37.608705809441403
sg12
F0.00035163963799166508
ssg16
(dp1240
g15
F0.95637365493395443
sg11
F0.00040865858299645645
sg38
F37.630398233147211
sg12
F0.00041065915008245104
sssS'140_300'
p1241
(dp1242
g7
(dp1243
g12
F0.028929136734659255
sg10
F0.98332411682382492
sg38
F179.38283263389781
sg11
F0.029864356690191794
ssg13
(dp1244
g15
F0.94724797809224603
sg11
F0.026793313928591633
sg38
F185.17577627372845
sg12
F0.025688672601247749
ssg16
(dp1245
g15
F0.96331205742405035
sg11
F0.010654123098169307
sg38
F173.58988899406717
sg12
F0.010986242329582412
ssssS'vtxpt20-500'
p1246
(dp1247
S'4.5_6.5'
p1248
(dp1249
g7
(dp1250
g91
F5.6254155960390602
sg10
F0.99738529897295469
sg11
F0.00062510241784534827
sg12
F0.00062893721777054236
ssg13
(dp1251
g91
F5.6235096688586648
sg12
F0.00037784945508362663
sg11
F0.00037667857810970911
sg15
F0.96207020078693606
ssg16
(dp1252
g91
F5.6273215232194547
sg12
F0.00047587662195285057
sg11
F0.00047206852929270566
sg15
F0.96459232132017192
sssS'20.5_22.5'
p1253
(dp1254
g7
(dp1255
g91
F21.444352144688857
sg10
F0.99175646874710588
sg11
F0.00061346298024885111
sg12
F0.0006153554587494148
ssg13
(dp1256
g91
F21.442375823887435
sg12
F0.00046100228192817245
sg11
F0.00046008360410851253
sg15
F0.95311482219729582
ssg16
(dp1257
g91
F21.446328465490282
sg12
F0.00037349294776381562
sg11
F0.00037171710868030459
sg15
F0.9610371620780791
sssS'16.5_18.5'
p1258
(dp1259
g7
(dp1260
g91
F17.470386644429873
sg10
F0.99311386470260932
sg11
F0.00040205316789448719
sg12
F0.00040307994562937188
ssg13
(dp1261
g91
F17.467676126464063
sg12
F0.000284447910735242
sg11
F0.0002840268282390888
sg15
F0.95468482715087077
ssg16
(dp1262
g91
F17.473097162395678
sg12
F0.00026494442475490652
sg11
F0.00026393876376547401
sg15
F0.96130449999986034
sssS'12.5_14.5'
p1263
(dp1264
g7
(dp1265
g91
F13.498263412435291
sg10
F0.99440497960487007
sg11
F0.00032880857640173498
sg12
F0.00032965998891092661
ssg13
(dp1266
g91
F13.494937544422884
sg12
F0.00021869783475042835
sg11
F0.00021836719279009814
sg15
F0.95720925105401244
ssg16
(dp1267
g91
F13.501589280447698
sg12
F0.00023122628271627624
sg11
F0.00023040486629280702
sg15
F0.96259498965337298
sssS'22.5_24.5'
p1268
(dp1269
g7
(dp1270
g91
F23.430876719366786
sg10
F0.9890239929847916
sg11
F0.00083456860555426206
sg12
F0.00083776318290163724
ssg13
(dp1271
g91
F23.429544999420315
sg12
F0.00064459917716644345
sg11
F0.00064292360688190931
sg15
F0.94952051084699063
ssg16
(dp1272
g91
F23.432208439313257
sg12
F0.00048637120943080184
sg11
F0.00048345464176880782
sg15
F0.96005811545725728
sssS'2.5_4.5'
p1273
(dp1274
g7
(dp1275
g91
F3.7128183450246635
sg10
F0.99733465384775444
sg11
F0.0011974216070019137
sg12
F0.001211676105048743
ssg13
(dp1276
g91
F3.711550856861872
sg12
F0.00071845136356566623
sg11
F0.00071367897006066768
sg15
F0.96289842550317184
ssg16
(dp1277
g91
F3.7140858331874553
sg12
F0.0009256958833162534
sg11
F0.00091192260204942248
sg15
F0.96547174189553497
sssS'24.5_26.5'
p1278
(dp1279
g7
(dp1280
g91
F25.418557758710712
sg10
F0.99007281710717754
sg11
F0.001180397811033772
sg12
F0.0011876387936994976
ssg13
(dp1281
g91
F25.417842887606135
sg12
F0.00093106140868299582
sg11
F0.00092640737797524124
sg15
F0.9502385201072967
ssg16
(dp1282
g91
F25.419272629815286
sg12
F0.00066416122151891478
sg11
F0.00065864697622890884
sg15
F0.959766295658667
sssS'18.5_20.5'
p1283
(dp1284
g7
(dp1285
g91
F19.457669433242657
sg10
F0.99248122754602064
sg11
F0.00048445930920481449
sg12
F0.00048548622691039247
ssg13
(dp1286
g91
F19.455646186484831
sg12
F0.00035248895379411289
sg11
F0.00035226109036765973
sg15
F0.95358087647382905
ssg16
(dp1287
g91
F19.459692680000483
sg12
F0.00030782090360733169
sg11
F0.0003065668761553626
sg15
F0.96080495026754775
sssS'14.5_16.5'
p1288
(dp1289
g7
(dp1290
g91
F15.48289011241944
sg10
F0.99374938347200348
sg11
F0.00035355274259529383
sg12
F0.00035442629161534301
ssg13
(dp1291
g91
F15.480154369911377
sg12
F0.00024235782773254934
sg11
F0.0002419395982969017
sg15
F0.95594960366813786
ssg16
(dp1292
g91
F15.485625854927502
sg12
F0.00024131250512417205
sg11
F0.00024053545738473284
sg15
F0.9619624621332602
sssS'0.5_2.5'
p1293
(dp1294
g7
(dp1295
g91
F1.8667804293638528
sg10
F0.99599305160882357
sg11
F0.0038967741581603589
sg12
F0.0040854126865116167
ssg13
(dp1296
g91
F1.8669820509252817
sg12
F0.002364988765709084
sg11
F0.0023119324653137902
sg15
F0.96139779803513414
ssg16
(dp1297
g91
F1.8665788078024237
sg12
F0.0031683387304396169
sg11
F0.0029789659062074317
sg15
F0.96526556734727431
sssS'8.5_10.5'
p1298
(dp1299
g7
(dp1300
g91
F9.536845232058651
sg10
F0.99639689068390336
sg11
F0.00035458520219226584
sg12
F0.00035570621964178074
ssg13
(dp1301
g91
F9.5350399198734568
sg12
F0.00022176665628599796
sg11
F0.00022132614202319319
sg15
F0.95990531684546421
ssg16
(dp1302
g91
F9.5386505442438452
sg12
F0.00026218873410605405
sg11
F0.00026114208155873818
sg15
F0.96337646757067641
sssS'28.5_30.5'
p1303
(dp1304
g7
(dp1305
g91
F29.397684761203038
sg10
F0.99013974555536721
sg11
F0.0028133134200951813
sg12
F0.002839082504821793
ssg13
(dp1306
g91
F29.396477264615605
sg12
F0.0022904020479794901
sg11
F0.0022761612823111507
sg15
F0.94785811257410857
ssg16
(dp1307
g91
F29.398892257790472
sg12
F0.0014776991733645509
sg11
F0.0014538821469217197
sg15
F0.9572973076062683
sssS'10.5_12.5'
p1308
(dp1309
g7
(dp1310
g91
F11.514355066113673
sg10
F0.99559987883279122
sg11
F0.00032668478800925457
sg12
F0.00032749590412674647
ssg13
(dp1311
g91
F11.511369305482678
sg12
F0.00021046000915418345
sg11
F0.00021012141288643155
sg15
F0.95908631470597117
ssg16
(dp1312
g91
F11.517340826744666
sg12
F0.00023606504817993157
sg11
F0.00023531596665699869
sg15
F0.96332506170086385
sssS'26.5_28.5'
p1313
(dp1314
g7
(dp1315
g91
F27.406717712961125
sg10
F0.98784997639874417
sg11
F0.0017986779291271253
sg12
F0.0018112207214079411
ssg13
(dp1316
g91
F27.402831474646664
sg12
F0.0014449772005101478
sg11
F0.0014380066249077472
sg15
F0.94640280835469848
ssg16
(dp1317
g91
F27.410603951275583
sg12
F0.00097257438255465931
sg11
F0.00096120098968961645
sg15
F0.95804305407270096
sssS'6.5_8.5'
p1318
(dp1319
g7
(dp1320
g91
F7.5726786139926929
sg10
F0.99713281098452511
sg11
F0.00043202453964099978
sg12
F0.00043442636810775084
ssg13
(dp1321
g91
F7.5707316506279225
sg12
F0.00026410214025771207
sg11
F0.00026347036663376943
sg15
F0.96096042305723728
ssg16
(dp1322
g91
F7.5746255773574624
sg12
F0.00032579110289872798
sg11
F0.0003233127269747248
sg15
F0.96372360077934571
ssssS'ptabseta<0.9'
p1323
(dp1324
S'10_20'
p1325
(dp1326
g7
(dp1327
g12
F0.004969822334989946
sg10
F0.96985138004814342
sg38
F16.44397079686561
sg11
F0.0049806582987657489
ssg13
(dp1328
g15
F0.93394474968017172
sg11
F0.0046097090926530311
sg38
F15.832817943144669
sg12
F0.0045948692503612878
ssg16
(dp1329
g15
F0.96297718278630562
sg11
F0.0013658267711705147
sg38
F17.055123650586552
sg12
F0.0013800005679505882
sssS'25_30'
p1330
(dp1331
g7
(dp1332
g12
F0.00076409733651445729
sg10
F0.99208430612674559
sg38
F27.715574882002059
sg11
F0.00076109114297720211
ssg13
(dp1333
g15
F0.95672549201020463
sg11
F0.00055872457838110432
sg38
F27.694892581230214
sg12
F0.00055975678382023193
ssg16
(dp1334
g15
F0.96435906313790265
sg11
F0.00047975099947860262
sg38
F27.736257182773905
sg12
F0.00048303244738855491
sssS'30_35'
p1335
(dp1336
g7
(dp1337
g12
F0.00052954539204825776
sg10
F0.99348741478573355
sg38
F32.670643524125111
sg11
F0.00052596133655666473
ssg13
(dp1338
g15
F0.95784476855417866
sg11
F0.00035160073242706857
sg38
F32.661158280254433
sg12
F0.00035242235131931714
ssg16
(dp1339
g15
F0.96412370634887012
sg11
F0.00036779784859950892
sg38
F32.680128767995789
sg12
F0.00037182238742545842
sssS'20_25'
p1340
(dp1341
g7
(dp1342
g12
F0.0016332002063584989
sg10
F0.98891537818513775
sg38
F22.844567100507206
sg11
F0.0016294083450437264
ssg13
(dp1343
g15
F0.95384089569840047
sg11
F0.0014095398216790781
sg38
F22.848055037698686
sg12
F0.001410572569556812
ssg16
(dp1344
g15
F0.96453237227324129
sg11
F0.00070290130656973176
sg38
F22.841079163315726
sg12
F0.00070912688627606168
sssS'60_90'
p1345
(dp1346
g7
(dp1347
g12
F0.00101703876572214
sg10
F0.98967050379186638
sg38
F69.784204062698933
sg11
F0.0010114439273232279
ssg13
(dp1348
g15
F0.95685011596243008
sg11
F0.00074273528829308072
sg38
F70.037141855043927
sg12
F0.00074489542350069792
ssg16
(dp1349
g15
F0.96683705566278189
sg11
F0.00064274899174451947
sg38
F69.531266270353939
sg12
F0.00064859597757812519
sssS'50_60'
p1350
(dp1351
g7
(dp1352
g12
F0.00064010231492389494
sg10
F0.99180512285449074
sg38
F53.857838541097834
sg11
F0.0006371493515749992
ssg13
(dp1353
g15
F0.9576309477250966
sg11
F0.00042358232678143024
sg38
F53.905248902205891
sg12
F0.00042472810616756137
ssg16
(dp1354
g15
F0.96554345773992556
sg11
F0.00044982907143176182
sg38
F53.810428179989771
sg12
F0.00045269489982451114
sssS'90_140'
p1355
(dp1356
g7
(dp1357
g12
F0.003106381947466764
sg10
F1.0025123245329706
sg38
F106.3689654966831
sg11
F0.003079634534733651
ssg13
(dp1358
g15
F0.97155619179019626
sg11
F0.0024701975821369107
sg38
F107.08349792648507
sg12
F0.0024779690692275621
ssg16
(dp1359
g15
F0.9691214442104783
sg11
F0.0016707955919286561
sg38
F105.65443306688114
sg12
F0.0017052616424668545
sssS'40_50'
p1360
(dp1361
g7
(dp1362
g12
F0.00025998075619377994
sg10
F0.99303703743752514
sg38
F44.317516464589382
sg11
F0.00025951149628017839
ssg13
(dp1363
g15
F0.95778733091406232
sg11
F0.00016162680659792642
sg38
F44.32146174570444
sg12
F0.0001616579768842129
ssg16
(dp1364
g15
F0.96450313010034083
sg11
F0.00019245966038323954
sg38
F44.313571183474323
sg12
F0.00019302971529580316
sssS'35_40'
p1365
(dp1366
g7
(dp1367
g12
F0.00040704106721473694
sg10
F0.99406652928385308
sg38
F37.622830516658489
sg11
F0.00040497077607457477
ssg13
(dp1368
g15
F0.95831351301985457
sg11
F0.00025575724178804446
sg38
F37.619307720171719
sg12
F0.00025641143900792095
ssg16
(dp1369
g15
F0.96403357802444489
sg11
F0.00029672608831813577
sg38
F37.626353313145259
sg12
F0.00029881157306012546
sssS'140_300'
p1370
(dp1371
g7
(dp1372
g12
F0.017118181899529347
sg10
F1.0172123884031126
sg38
F179.06876918186873
sg11
F0.017259996639145316
ssg13
(dp1373
g15
F0.96625332063900782
sg11
F0.014950182684753167
sg38
F184.7964168817908
sg12
F0.014693612155261319
ssg16
(dp1374
g15
F0.94990321751379414
sg11
F0.0066165490021280592
sg38
F173.34112148194663
sg12
F0.0068467329558326876
ssssS'ptabseta0.9-1.2'
p1375
(dp1376
S'10_20'
p1377
(dp1378
g7
(dp1379
g12
F0.0068040569008358245
sg10
F1.0028126099736672
sg38
F15.788555867051775
sg11
F0.0068203990826193935
ssg13
(dp1380
g15
F0.96366814719984517
sg11
F0.0063843624015078732
sg38
F15.040569808177843
sg12
F0.0063637782343391779
ssg16
(dp1381
g15
F0.96096532653807587
sg11
F0.0014780782848452319
sg38
F16.536541925925707
sg12
F0.001497062761687156
sssS'25_30'
p1382
(dp1383
g7
(dp1384
g12
F0.0013696459898185859
sg10
F0.99583916465759093
sg38
F27.643008821117107
sg11
F0.001359443978287616
ssg13
(dp1385
g15
F0.96177060820848137
sg11
F0.0009955634877716257
sg38
F27.623448013455885
sg12
F0.00099938012540851952
ssg16
(dp1386
g15
F0.96578909761916854
sg11
F0.00085952888976939415
sg38
F27.662569628778328
sg12
F0.0008702295240127448
sssS'30_35'
p1387
(dp1388
g7
(dp1389
g12
F0.0010245805255278992
sg10
F0.99465199667511572
sg38
F32.657682910100341
sg11
F0.0010167281137547501
ssg13
(dp1390
g15
F0.96181287115469072
sg11
F0.00069342771185393088
sg38
F32.644883058571658
sg12
F0.00069628221571700979
ssg16
(dp1391
g15
F0.96698430644064626
sg11
F0.0007007135939162693
sg38
F32.670482761629025
sg12
F0.00070861815042077626
sssS'20_25'
p1392
(dp1393
g7
(dp1394
g12
F0.0024843682012593063
sg10
F0.99573995442157148
sg38
F22.724282061033684
sg11
F0.0024733463003077478
ssg13
(dp1395
g15
F0.96198951492238938
sg11
F0.002141024039123311
sg38
F22.771224993174776
sg12
F0.0021453081971089289
ssg16
(dp1396
g15
F0.96610516696722504
sg11
F0.0010655703498385289
sg38
F22.677339128892594
sg12
F0.0010809064125123498
sssS'60_90'
p1397
(dp1398
g7
(dp1399
g12
F0.0019210984577622177
sg10
F0.99065313438466507
sg38
F69.73042191342131
sg11
F0.0019018922911846297
ssg13
(dp1400
g15
F0.96123354494188984
sg11
F0.0014039187460573753
sg38
F69.96668299525237
sg12
F0.001411353413737737
ssg16
(dp1401
g15
F0.97030283514819848
sg11
F0.0012090300319602895
sg38
F69.494160831590236
sg12
F0.0012291726986631418
sssS'50_60'
p1402
(dp1403
g7
(dp1404
g12
F0.0012023365060218334
sg10
F0.99561913315248807
sg38
F53.82326678974816
sg11
F0.0011922562365497249
ssg13
(dp1405
g15
F0.96101743218364299
sg11
F0.00078602082564566188
sg38
F53.859463429280453
sg12
F0.00079017472080692634
ssg16
(dp1406
g15
F0.96524604658883595
sg11
F0.0008442694849050956
sg38
F53.787070150215868
sg12
F0.00085374101443620894
sssS'90_140'
p1407
(dp1408
g7
(dp1409
g12
F0.0062110559065672328
sg10
F1.0093582467916402
sg38
F106.26449883932807
sg11
F0.0061233306336977112
ssg13
(dp1410
g15
F0.97474167200355954
sg11
F0.0048521568515294926
sg38
F107.09916946049023
sg12
F0.0048737368657722872
ssg16
(dp1411
g15
F0.96570437216110983
sg11
F0.0033486055335069367
sg38
F105.42982821816591
sg12
F0.0034637573429552627
sssS'40_50'
p1412
(dp1413
g7
(dp1414
g12
F0.00046828308969231152
sg10
F0.99363691604504778
sg38
F44.311147242510152
sg11
F0.00046663599134779093
ssg13
(dp1415
g15
F0.96057903045890225
sg11
F0.00029476752767218072
sg38
F44.318520585443991
sg12
F0.00029548848965835352
ssg16
(dp1416
g15
F0.96673041726577036
sg11
F0.00034367390527909909
sg38
F44.303773899576314
sg12
F0.00034516426316144242
sssS'35_40'
p1417
(dp1418
g7
(dp1419
g12
F0.00075303809082020935
sg10
F0.99368946562068117
sg38
F37.661492775804106
sg11
F0.00074814725006164945
ssg13
(dp1420
g15
F0.96121446028536961
sg11
F0.00048728962745475039
sg38
F37.651334736549479
sg12
F0.00048913777286444741
ssg16
(dp1421
g15
F0.96731875856706706
sg11
F0.00053845492349563614
sg38
F37.671650815058726
sg12
F0.0005431976355407274
sssS'140_300'
p1422
(dp1423
g7
(dp1424
g12
F0.034302023476105462
sg10
F1.0096686694682793
sg38
F178.19737892510955
sg11
F0.029568463987291172
ssg13
(dp1425
g15
F0.97390322999683399
sg11
F0.026096770003166014
sg38
F184.52438166566643
sg12
F0.030731363512558174
ssg16
(dp1426
g15
F0.96457705329186816
sg11
F0.011396744173933326
sg38
F171.87037618455267
sg12
F0.012143470010223884
ssssS'ptabseta2.1-2.4'
p1427
(dp1428
S'10_20'
p1429
(dp1430
g7
(dp1431
g12
F0.0069053490831006339
sg10
F1.0049331427136747
sg38
F15.145550850147055
sg11
F0.0069699893733772044
ssg13
(dp1432
g15
F0.96109971901632463
sg11
F0.0065133615184673303
sg38
F14.32737161953748
sg12
F0.0064474254192172986
ssg16
(dp1433
g15
F0.95638175134816983
sg11
F0.0014112364464589275
sg38
F15.96373008075663
sg12
F0.0014231892246177034
sssS'25_30'
p1434
(dp1435
g7
(dp1436
g12
F0.0016894918799987748
sg10
F0.99795772573823993
sg38
F27.587436553959861
sg11
F0.0016802581820939259
ssg13
(dp1437
g15
F0.95747775666773061
sg11
F0.0012498786771208371
sg38
F27.575389482920301
sg12
F0.0012533624583347224
ssg16
(dp1438
g15
F0.95943719054776166
sg11
F0.0010202568920587452
sg38
F27.599483624999422
sg12
F0.0010300132069722852
sssS'30_35'
p1439
(dp1440
g7
(dp1441
g12
F0.0014050574096404343
sg10
F1.0007368790831572
sg38
F32.565507272704494
sg11
F0.0013966655880980673
ssg13
(dp1442
g15
F0.95686546813674789
sg11
F0.00095370428148986743
sg38
F32.55449935257046
sg12
F0.0009569011088324125
ssg16
(dp1443
g15
F0.95616089317443476
sg11
F0.00093410586157973959
sg38
F32.576515192838535
sg12
F0.00094229428883366986
sssS'20_25'
p1444
(dp1445
g7
(dp1446
g12
F0.0028270073959211803
sg10
F0.99984257139623967
sg38
F22.640935928051519
sg11
F0.0028190114833886817
ssg13
(dp1447
g15
F0.95585349336371839
sg11
F0.0024003820618239157
sg38
F22.644769106717384
sg12
F0.0024024138929771787
ssg16
(dp1448
g15
F0.95600399573795669
sg11
F0.0012253936313421591
sg38
F22.637102749385654
sg12
F0.0012381845801731344
sssS'60_90'
p1449
(dp1450
g7
(dp1451
g12
F0.0046931713032945929
sg10
F0.98575526481294851
sg38
F69.636630825122595
sg11
F0.0046749593805646781
ssg13
(dp1452
g15
F0.94678945872699594
sg11
F0.0037571326368213628
sg38
F69.963178482353385
sg12
F0.0037555914122512574
ssg16
(dp1453
g15
F0.96047111542097974
sg11
F0.0024942949279232914
sg38
F69.310083167891804
sg12
F0.0025289117705112399
sssS'50_60'
p1454
(dp1455
g7
(dp1456
g12
F0.0024673316963413445
sg10
F0.992397600889384
sg38
F53.839233741166822
sg11
F0.0024516722845565942
ssg13
(dp1457
g15
F0.94148926773499042
sg11
F0.0017293645770712191
sg38
F53.88965330213594
sg12
F0.0017350633993982799
ssg16
(dp1458
g15
F0.9487016765167815
sg11
F0.001567271915085401
sg38
F53.788814180197711
sg12
F0.0015832527408552899
sssS'90_140'
p1459
(dp1460
g7
(dp1461
g12
F0.01151619525001747
sg10
F1.0417357230338913
sg38
F106.32462941376673
sg11
F0.0090968822779836939
ssg13
(dp1462
g15
F0.99999999999922218
sg11
F7.7782225105238467e-13
sg38
F107.38095673607525
sg12
F0.006567808826342723
ssg16
(dp1463
g15
F0.95993636187005249
sg11
F0.0083825752397700265
sg38
F105.26830209145822
sg12
F0.0085360320240720992
sssS'40_50'
p1464
(dp1465
g7
(dp1466
g12
F0.00090351113932696258
sg10
F0.99634612324734462
sg38
F44.287279617397417
sg11
F0.00089990218688796491
ssg13
(dp1467
g15
F0.94813184152833607
sg11
F0.00058448716214257873
sg38
F44.272612873124238
sg12
F0.00058621203269653007
ssg16
(dp1468
g15
F0.95160890317727542
sg11
F0.00062816946530343536
sg38
F44.301946361670595
sg12
F0.0006312684179233803
sssS'35_40'
p1469
(dp1470
g7
(dp1471
g12
F0.0012322516814309472
sg10
F0.99406989665031997
sg38
F37.54371528563037
sg11
F0.0012250021018871036
ssg13
(dp1472
g15
F0.950871795915611
sg11
F0.00082166177345998736
sg38
F37.530643452152709
sg12
F0.00082495655203475564
ssg16
(dp1473
g15
F0.95654420189136402
sg11
F0.0008403959387200139
sg38
F37.55678711910803
sg12
F0.00084691774485508211
sssS'140_300'
p1474
(dp1475
g7
(dp1476
g12
F0.13467218981807683
sg10
F0.78984169746679123
sg38
F180.58894671912245
sg11
F0.17355806043161731
ssg13
(dp1477
g15
F0.78984169746668464
sg11
F0.17355806043159389
sg38
F185.92425177205018
sg12
F0.12546255462422537
ssg16
(dp1478
g15
F0.999999999999865
sg11
F1.3500311979441904e-13
sg38
F175.25364166619471
sg12
F0.061969834648108818
ssssS'etapt20-500'
p1479
(dp1480
S'2.1_2.4'
p1481
(dp1482
g7
(dp1483
g12
F0.00077323331586531905
sg325
F2.2459959587918927
sg10
F1.0010417398373661
sg11
F0.00077060598434467592
ssg13
(dp1484
g15
F0.95507602340590247
sg325
F2.2464800000813709
sg11
F0.00053772719420674129
sg12
F0.00053887957530206318
ssg16
(dp1485
g15
F0.95408211805540555
sg325
F2.245511917502415
sg11
F0.00050087621940541184
sg12
F0.0005033124812651201
sssS'-0.2_0.2'
p1486
(dp1487
g7
(dp1488
g12
F0.0003535156932579093
sg325
F-1.9969274292022639e-05
sg10
F0.99185033085806507
sg11
F0.00035224861037053742
ssg13
(dp1489
g15
F0.96302141302866018
sg325
F-0.00011679501967315192
sg11
F0.00024610285303279565
sg12
F0.00024681981194349536
ssg16
(dp1490
g15
F0.9709342055625827
sg325
F7.6856471089106645e-05
sg11
F0.0002394474798277266
sg12
F0.00024048451515020614
sssS'-2.1_-1.6'
p1491
(dp1492
g7
(dp1493
g12
F0.00053527794586582709
sg325
F-1.8407675967961594
sg10
F0.99037669164857856
sg11
F0.00053391196863367954
ssg13
(dp1494
g15
F0.93079056203514066
sg325
F-1.8398989146620102
sg11
F0.00034656118051905316
sg12
F0.00034697258258581891
ssg16
(dp1495
g15
F0.9398348829128329
sg325
F-1.8416362789303087
sg11
F0.00036641403392932551
sg12
F0.00036780915969985125
sssS'-1.2_-0.9'
p1496
(dp1497
g7
(dp1498
g12
F0.00045387124958742528
sg325
F-1.0482483308423056
sg10
F0.99432674534888188
sg11
F0.00045208978828148487
ssg13
(dp1499
g15
F0.96303898938239541
sg325
F-1.048652145206572
sg11
F0.00031055289104661054
sg12
F0.0003113474371140327
ssg16
(dp1500
g15
F0.96853372785873471
sg325
F-1.0478445164780394
sg11
F0.00031043897061781942
sg12
F0.00031209591528129528
sssS'1.6_2.1'
p1501
(dp1502
g7
(dp1503
g12
F0.00047289392382564803
sg325
F1.8403025067256222
sg10
F0.99794440906480231
sg11
F0.00047152717460457658
ssg13
(dp1504
g15
F0.95107848178652565
sg325
F1.839315739414296
sg11
F0.00030766376648119504
sg12
F0.00030828439582027318
ssg16
(dp1505
g15
F0.95303753710870942
sg325
F1.8412892740369482
sg11
F0.0003282234296516555
sg12
F0.00032942980919708353
sssS'0.9_1.2'
p1506
(dp1507
g7
(dp1508
g12
F0.00047008576392750125
sg325
F1.0481157259144394
sg10
F0.99449776670378232
sg11
F0.00046838485358410918
ssg13
(dp1509
g15
F0.96016582249040805
sg325
F1.0484229281153037
sg11
F0.00031719630867190987
sg12
F0.00031791135007600322
ssg16
(dp1510
g15
F0.96547810828458069
sg325
F1.0478085237135752
sg11
F0.00032409551942873916
sg12
F0.0003257041509216433
sssS'-0.3_-0.2'
p1511
(dp1512
g7
(dp1513
g12
F0.0012075621557480244
sg325
F-0.25000860551163118
sg10
F0.98542096232190224
sg11
F0.0012035933700485606
ssg13
(dp1514
g15
F0.88268804164265036
sg325
F-0.25001082074715053
sg11
F0.000684654980559283
sg12
F0.00068615501226808372
ssg16
(dp1515
g15
F0.89574717343419707
sg325
F-0.25000639027611188
sg11
F0.00084513594523616018
sg12
F0.00084855417346780843
sssS'-0.6_-0.3'
p1516
(dp1517
g7
(dp1518
g12
F0.00033954953292706746
sg325
F-0.4488604051013585
sg10
F0.9954729900706939
sg11
F0.00033785011706167887
ssg13
(dp1519
g15
F0.97835729366776003
sg325
F-0.44877996243939372
sg11
F0.0002486595202062749
sg12
F0.00024933599901282683
ssg16
(dp1520
g15
F0.98280646830837837
sg325
F-0.44894084776332321
sg11
F0.00022104579661312785
sg12
F0.000222807908933145
sssS'1.2_1.6'
p1521
(dp1522
g7
(dp1523
g12
F0.00045217083547546415
sg325
F1.3944844293298697
sg10
F1.0008888320964262
sg11
F0.00045057837990024834
ssg13
(dp1524
g15
F0.96279150336524555
sg325
F1.3932923203117493
sg11
F0.000299489942367899
sg12
F0.00030013520079563027
ssg16
(dp1525
g15
F0.96193650332636516
sg325
F1.3956765383479903
sg11
F0.00031303538435589496
sg12
F0.0003145358415175051
sssS'0.2_0.3'
p1526
(dp1527
g7
(dp1528
g12
F0.0012643330645132466
sg325
F0.2499156223573584
sg10
F0.98545106213669231
sg11
F0.0012600092934438242
ssg13
(dp1529
g15
F0.87244212891889761
sg325
F0.24989535361751333
sg11
F0.00070311173311786619
sg12
F0.00070452674029701566
ssg16
(dp1530
g15
F0.88532263289385016
sg325
F0.24993589109720346
sg11
F0.00087881529594337248
sg12
F0.00088265203232665366
sssS'0.6_0.9'
p1531
(dp1532
g7
(dp1533
g12
F0.00041947427454286818
sg325
F0.74812054097012348
sg10
F0.99412740592919646
sg11
F0.00041779157215125171
ssg13
(dp1534
g15
F0.96381138695024204
sg325
F0.74768362186234183
sg11
F0.00028393100854324761
sg12
F0.00028461174150462939
ssg16
(dp1535
g15
F0.96950489565206333
sg325
F0.74855746007790502
sg11
F0.00029058270099796194
sg12
F0.00029220992138444149
sssS'0.3_0.6'
p1536
(dp1537
g7
(dp1538
g12
F0.0003460769999074695
sg325
F0.44897263542527921
sg10
F0.99567655114084375
sg11
F0.00034453365948313526
ssg13
(dp1539
g15
F0.97696035519088653
sg325
F0.44898274714287006
sg11
F0.00024973028942833133
sg12
F0.00025040098133274614
ssg16
(dp1540
g15
F0.98120253416783565
sg325
F0.4489625237076883
sg11
F0.00022884355836903447
sg12
F0.00023036081535850365
sssS'-0.9_-0.6'
p1541
(dp1542
g7
(dp1543
g12
F0.00041531222025912521
sg325
F-0.74817087897488355
sg10
F0.995589895593882
sg11
F0.00041362447345198809
ssg13
(dp1544
g15
F0.96578284498724509
sg325
F-0.74786761683684666
sg11
F0.00028085941019640441
sg12
F0.00028153086774512217
ssg16
(dp1545
g15
F0.97006091490225843
sg325
F-0.74847414111292054
sg11
F0.00028782172699433318
sg12
F0.00028946256979298107
sssS'-1.6_-1.2'
p1546
(dp1547
g7
(dp1548
g12
F0.0004036242473406156
sg325
F-1.394047458977469
sg10
F0.99836649601649285
sg11
F0.00040217813245008242
ssg13
(dp1549
g15
F0.97166024078057767
sg325
F-1.3929707179761317
sg11
F0.0002852309272913671
sg12
F0.00028584823408524295
ssg16
(dp1550
g15
F0.97325004861193376
sg325
F-1.395124199978806
sg11
F0.00026849239520078633
sg12
F0.0002698923298480049
sssS'-2.4_-2.1'
p1551
(dp1552
g7
(dp1553
g12
F0.0007926222449802121
sg325
F-2.2461744188362269
sg10
F0.99109129787158423
sg11
F0.00078999093590210046
ssg13
(dp1554
g15
F0.94457465323091716
sg325
F-2.2465535582932934
sg11
F0.00056430066608414943
sg12
F0.00056556681985461875
ssg16
(dp1555
g15
F0.95306522745123101
sg325
F-2.2457952793791605
sg11
F0.00050292051563122404
sg12
F0.00050529550329008333
sssssS'HighPt45'
p1556
(dp1557
S'vtxpt45-500'
p1558
(dp1559
S'4.5_6.5'
p1560
(dp1561
g7
(dp1562
g91
F5.625671483807297
sg10
F0.99855781584088765
sg11
F0.0011261401028199042
sg12
F0.0011386868854040238
ssg13
(dp1563
g91
F5.6253061887622477
sg12
F0.00064025053483021308
sg11
F0.00063576488618941735
sg15
F0.96177827694813334
ssg16
(dp1564
g91
F5.6260367788523462
sg12
F0.00089175285158447036
sg11
F0.00088007141849381334
sg15
F0.96316734163080764
sssS'20.5_22.5'
p1565
(dp1566
g7
(dp1567
g91
F21.446677497710631
sg10
F0.98455153959513642
sg11
F0.0011849504114005989
sg12
F0.0011914126033523752
ssg13
(dp1568
g91
F21.446154473700311
sg12
F0.00090266131770282588
sg11
F0.0008995567152217807
sg15
F0.94504425422512028
ssg16
(dp1569
g91
F21.447200521720948
sg12
F0.00071318131391070495
sg11
F0.00070696775720045964
sg15
F0.95987281134488689
sssS'16.5_18.5'
p1570
(dp1571
g7
(dp1572
g91
F17.471865607643551
sg10
F0.98927814519857604
sg11
F0.00074840355990066795
sg12
F0.00075229125093866133
ssg13
(dp1573
g91
F17.469448961528169
sg12
F0.00053208985742006813
sg11
F0.00053049551970763215
sg15
F0.9512377817389982
ssg16
(dp1574
g91
F17.474282253758933
sg12
F0.00049534713005234166
sg11
F0.0004915161046043522
sg15
F0.96154735284085135
sssS'12.5_14.5'
p1575
(dp1576
g7
(dp1577
g91
F13.498809825934551
sg10
F0.99399885095304952
sg11
F0.00060106993329823186
sg12
F0.00060428937072642475
ssg13
(dp1578
g91
F13.497112976117641
sg12
F0.00039281222010189687
sg11
F0.00039163567696798236
sg15
F0.95582787001696956
ssg16
(dp1579
g91
F13.500506675751462
sg12
F0.00043078719585673027
sg11
F0.00042764471555275624
sg15
F0.96159856633689111
sssS'22.5_24.5'
p1580
(dp1581
g7
(dp1582
g91
F23.432668105635102
sg10
F0.97890079226604343
sg11
F0.0016004094697636508
sg12
F0.0016114179098985991
ssg13
(dp1583
g91
F23.431756855551569
sg12
F0.0012646164886866117
sg11
F0.0012588151561655748
sg15
F0.94010320183746632
ssg16
(dp1584
g91
F23.433579355718638
sg12
F0.00091122384920810495
sg11
F0.00090087461370322948
sg15
F0.96036616709772482
sssS'2.5_4.5'
p1585
(dp1586
g7
(dp1587
g91
F3.7129459322119489
sg10
F1.0000231261510155
sg11
F0.0021663932521901121
sg12
F0.0022138924207328308
ssg13
(dp1588
g91
F3.7112206917806594
sg12
F0.0011992632354356767
sg11
F0.0011822662759221794
sg15
F0.96333761998543399
ssg16
(dp1589
g91
F3.7146711726432384
sg12
F0.0017635002272155464
sg11
F0.0017196930415605196
sg15
F0.96331534220935455
sssS'24.5_26.5'
p1590
(dp1591
g7
(dp1592
g91
F25.417477496076142
sg10
F0.97999114185347369
sg11
F0.0023133538698261124
sg12
F0.0023319936643515973
ssg13
(dp1593
g91
F25.419005957487947
sg12
F0.0018699875166548303
sg11
F0.001860376710718396
sg15
F0.94104600040139108
ssg16
(dp1594
g91
F25.415949034664337
sg12
F0.0012571023204932335
sg11
F0.0012387495157429697
sg15
F0.96025970053318543
sssS'18.5_20.5'
p1595
(dp1596
g7
(dp1597
g91
F19.458619356181273
sg10
F0.98856155837426796
sg11
F0.00091576940088238033
sg12
F0.00092005520377564406
ssg13
(dp1598
g91
F19.456772740844631
sg12
F0.00067108060240543988
sg11
F0.00066921476302084909
sg15
F0.94936033312009216
ssg16
(dp1599
g91
F19.460465971517912
sg12
F0.00058140932635441817
sg11
F0.00057720927262147842
sg15
F0.96034518546458159
sssS'14.5_16.5'
p1600
(dp1601
g7
(dp1602
g91
F15.483406569580184
sg10
F0.99095518866926635
sg11
F0.00065597859580299059
sg12
F0.00065930653577521208
ssg13
(dp1603
g91
F15.482337811678171
sg12
F0.00044810351859962173
sg11
F0.0004468133283556735
sg15
F0.9528688447286997
ssg16
(dp1604
g91
F15.484475327482198
sg12
F0.00045255407623515158
sg11
F0.00044928784812504316
sg15
F0.96156602803431301
sssS'0.5_2.5'
p1605
(dp1606
g7
(dp1607
g91
F1.8717123638365698
sg10
F1.0028588649696424
sg11
F0.0067414575114669428
sg12
F0.0072060032112211576
ssg13
(dp1608
g91
F1.8699166456175802
sg12
F0.0038515750208679657
sg11
F0.0036818147174386192
sg15
F0.9661669143912992
ssg16
(dp1609
g91
F1.8735080820555594
sg12
F0.0057594895313021243
sg11
F0.0053351436019746261
sg15
F0.96341264772141799
sssS'8.5_10.5'
p1610
(dp1611
g7
(dp1612
g91
F9.5369660120904101
sg10
F0.99453754662642069
sg11
F0.00063532159597194107
sg12
F0.00063890036975919632
ssg13
(dp1613
g91
F9.5355970116041249
sg12
F0.00038677795319314528
sg11
F0.00038536131090856541
sg15
F0.95841667934470642
ssg16
(dp1614
g91
F9.5383350125766935
sg12
F0.00048167638993283439
sg11
F0.00047836854599520159
sg15
F0.96368074045646623
sssS'28.5_30.5'
p1615
(dp1616
g7
(dp1617
g91
F29.404182630671869
sg10
F0.97666976333592326
sg11
F0.0055054687633485748
sg12
F0.0055842813919945418
ssg13
(dp1618
g91
F29.399979069645752
sg12
F0.0045867638451160386
sg11
F0.0045466719855345129
sg15
F0.93485314666115138
ssg16
(dp1619
g91
F29.408386191697989
sg12
F0.0028101240416927385
sg11
F0.0027278546030474471
sg15
F0.95718448728059047
sssS'10.5_12.5'
p1620
(dp1621
g7
(dp1622
g91
F11.515127016811071
sg10
F0.99378490157648569
sg11
F0.00059191231351762646
sg12
F0.00059478732321316082
ssg13
(dp1623
g91
F11.512955513013281
sg12
F0.0003733114571671148
sg11
F0.0003722019294632986
sg15
F0.95719858645451117
ssg16
(dp1624
g91
F11.517298520608863
sg12
F0.00043727690272301581
sg11
F0.00043456154310215827
sg15
F0.96318487525425678
sssS'26.5_28.5'
p1625
(dp1626
g7
(dp1627
g91
F27.408352918695925
sg10
F0.973111009923599
sg11
F0.0034987099138837682
sg12
F0.0035350041838779862
ssg13
(dp1628
g91
F27.404904880860876
sg12
F0.0028808745300283561
sg11
F0.0028624826398929203
sg15
F0.93320093710237195
ssg16
(dp1629
g91
F27.411800956530971
sg12
F0.0018362209154617888
sg11
F0.0017987022669193888
sg15
F0.95898713259409074
sssS'6.5_8.5'
p1630
(dp1631
g7
(dp1632
g91
F7.5732664457621315
sg10
F0.99654828688979136
sg11
F0.000773804235818954
sg12
F0.00077942142694510587
ssg13
(dp1633
g91
F7.5713981138853432
sg12
F0.00045246951331124566
sg11
F0.00045035627572231044
sg15
F0.96010207922891466
ssg16
(dp1634
g91
F7.5751347776389188
sg12
F0.00060136389499960117
sg11
F0.00059615870315433441
sg15
F0.96342755475038278
ssssS'etapt45-500'
p1635
(dp1636
S'2.1_2.4'
p1637
(dp1638
g7
(dp1639
g12
F0.0017028571060957913
sg325
F2.2433367657527956
sg10
F0.99622509673963344
sg11
F0.0016922244611339804
ssg13
(dp1640
g15
F0.9458492888172727
sg325
F2.2445113500100775
sg11
F0.0011778963594254713
sg12
F0.0011821778040592692
ssg16
(dp1641
g15
F0.94943330770603285
sg325
F2.2421621814955137
sg11
F0.001096796744307947
sg12
F0.0011070542615865793
sssS'-0.2_0.2'
p1642
(dp1643
g7
(dp1644
g12
F0.00064750296481826792
sg325
F-0.00030330914728656552
sg10
F0.98878219820833513
sg11
F0.0006438634037264629
ssg13
(dp1645
g15
F0.96084205991771265
sg325
F-0.00045681565156914191
sg11
F0.00045543672989637905
sg12
F0.00045700821898001241
ssg16
(dp1646
g15
F0.97174287892596589
sg325
F-0.00014980264300398912
sg11
F0.00043386577374245712
sg12
F0.00043739262455582062
sssS'-2.1_-1.6'
p1647
(dp1648
g7
(dp1649
g12
F0.0010335358659060365
sg325
F-1.8353166395155551
sg10
F0.9885829575244679
sg11
F0.0010286587856767043
ssg13
(dp1650
g15
F0.92704054596229712
sg325
F-1.8344787198367427
sg11
F0.00066212196487855108
sg12
F0.00066433667471396478
ssg16
(dp1651
g15
F0.9377468414828023
sg325
F-1.8361545591943675
sg11
F0.0007095921380479009
sg12
F0.00071383803631327384
sssS'-1.2_-0.9'
p1652
(dp1653
g7
(dp1654
g12
F0.0008260496615107569
sg325
F-1.0483257820332241
sg10
F0.99320505762355327
sg11
F0.0008204568090824446
ssg13
(dp1655
g15
F0.96145377357616324
sg325
F-1.0488564650408683
sg11
F0.00055339080353684336
sg12
F0.00055578552413088371
ssg16
(dp1656
g15
F0.96803149178140369
sg325
F-1.0477950990255802
sg11
F0.00057359640510089977
sg12
F0.00057885056949932596
sssS'1.6_2.1'
p1657
(dp1658
g7
(dp1659
g12
F0.00091834168726788402
sg325
F1.8354008565960709
sg10
F0.99736225683351876
sg11
F0.00091342068783220652
ssg13
(dp1660
g15
F0.9480902378141326
sg325
F1.8344066346925216
sg11
F0.00058405082497124249
sg12
F0.00058607468541403696
ssg16
(dp1661
g15
F0.95059767032310039
sg325
F1.8363950784996201
sg11
F0.0006442113998332506
sg12
F0.00064870349320960753
sssS'0.9_1.2'
p1662
(dp1663
g7
(dp1664
g12
F0.00085908065031497626
sg325
F1.0483485998624231
sg10
F0.99194201766522361
sg11
F0.00085347924012158362
ssg13
(dp1665
g15
F0.95738911160446416
sg325
F1.0487263311188124
sg11
F0.00057079708392282014
sg12
F0.00057316901268381017
ssg16
(dp1666
g15
F0.96516640544969745
sg325
F1.0479708686060336
sg11
F0.00059875566068721996
sg12
F0.00060401368782599921
sssS'-0.3_-0.2'
p1667
(dp1668
g7
(dp1669
g12
F0.0022132937724797007
sg325
F-0.24991544525328274
sg10
F0.98211319679863318
sg11
F0.0022001370525090735
ssg13
(dp1670
g15
F0.87806052450464556
sg325
F-0.24981884084237158
sg11
F0.0012519223994284135
sg12
F0.0012567061994599735
ssg16
(dp1671
g15
F0.89405226135524374
sg325
F-0.25001204966419394
sg11
F0.001544842516852447
sg12
F0.0015563472076032436
sssS'-0.6_-0.3'
p1672
(dp1673
g7
(dp1674
g12
F0.00061788664246078
sg325
F-0.44882221277405898
sg10
F0.99337376309733427
sg11
F0.0006127592543395962
ssg13
(dp1675
g15
F0.97638401112093431
sg325
F-0.44883479987820957
sg11
F0.00044924848416281457
sg12
F0.00045153676048867279
ssg16
(dp1676
g15
F0.98289691895684261
sg325
F-0.44880962566990845
sg11
F0.00040381918484863101
sg12
F0.0004088504608060829
sssS'1.2_1.6'
p1677
(dp1678
g7
(dp1679
g12
F0.00083440131743781206
sg325
F1.3930720787217885
sg10
F0.99838524747844393
sg11
F0.00082933513342040564
ssg13
(dp1680
g15
F0.9604336258960976
sg325
F1.3912049035871814
sg11
F0.00054790739380123732
sg12
F0.00055019477131607855
ssg16
(dp1681
g15
F0.96198699682492483
sg325
F1.3949392538563956
sg11
F0.00058084970507816136
sg12
F0.0005853989177812825
sssS'0.2_0.3'
p1682
(dp1683
g7
(dp1684
g12
F0.0023062462038547556
sg325
F0.24989843574687476
sg10
F0.98347953871663818
sg11
F0.0022932823245806837
ssg13
(dp1685
g15
F0.86984098765434581
sg325
F0.24981921238252786
sg11
F0.0012816715582521128
sg12
F0.0012863320185137156
ssg16
(dp1686
g15
F0.88445255179321625
sg325
F0.24997765911122163
sg11
F0.0015984492587512924
sg12
F0.0016096244547191187
sssS'0.6_0.9'
p1687
(dp1688
g7
(dp1689
g12
F0.00075312437220637941
sg325
F0.74794907580698711
sg10
F0.99189823619411355
sg11
F0.0007478812278142933
ssg13
(dp1690
g15
F0.96202565523631645
sg325
F0.74733399999037819
sg11
F0.00050528838747445032
sg12
F0.00050749138790615381
ssg16
(dp1691
g15
F0.96988342163766983
sg325
F0.74856415162359591
sg11
F0.00052466138530803921
sg12
F0.00052964737430217547
sssS'0.3_0.6'
p1692
(dp1693
g7
(dp1694
g12
F0.00062714639363844874
sg325
F0.4491353376068189
sg10
F0.99259271054675702
sg11
F0.00062198332096639766
ssg13
(dp1695
g15
F0.9747665789104154
sg325
F0.44891077868409962
sg11
F0.00045572723329198047
sg12
F0.00045803400829689286
ssg16
(dp1696
g15
F0.98204083966471778
sg325
F0.44935989652953823
sg11
F0.00040973545650774431
sg12
F0.00041479715620828367
sssS'-0.9_-0.6'
p1697
(dp1698
g7
(dp1699
g12
F0.0007511080929053554
sg325
F-0.7479076889072549
sg10
F0.99295802334503758
sg11
F0.00074593820517249805
ssg13
(dp1700
g15
F0.96353829042558881
sg325
F-0.74766779425643926
sg11
F0.00050261520314951326
sg12
F0.00050477514423925851
ssg16
(dp1701
g15
F0.97037162475374261
sg325
F-0.74814758355807054
sg11
F0.00052457633300751676
sg12
F0.00052949496876701174
sssS'-1.6_-1.2'
p1702
(dp1703
g7
(dp1704
g12
F0.000744735040317578
sg325
F-1.3923499434148647
sg10
F0.99470888291507242
sg11
F0.00074000480494132036
ssg13
(dp1705
g15
F0.96842057919437607
sg325
F-1.3905136817679811
sg11
F0.00052496990432502537
sg12
F0.00052698108220329554
ssg16
(dp1706
g15
F0.97357186190631329
sg325
F-1.3941862050617484
sg11
F0.00049603282919091676
sg12
F0.00050063779609297524
sssS'-2.4_-2.1'
p1707
(dp1708
g7
(dp1709
g12
F0.0017527044862880551
sg325
F-2.2437310219991851
sg10
F0.98769582085067353
sg11
F0.0017427078683894567
ssg13
(dp1710
g15
F0.93588042000909799
sg325
F-2.244943174697513
sg11
F0.0012448728457919857
sg12
F0.0012489209595922572
ssg16
(dp1711
g15
F0.94753911098160926
sg325
F-2.2425188693008571
sg11
F0.0010984253561331146
sg12
F0.001108308973396816
ssssS'pt_45abseta0.9-1.2'
p1712
(dp1713
S'90_140'
p1714
(dp1715
g7
(dp1716
g12
F0.0062110559065672328
sg10
F1.0093582467916402
sg11
F0.0061233306336977112
sS'pt_45'
p1717
F106.26449883932807
ssg13
(dp1718
g15
F0.97474167200355954
sg12
F0.0048737368657722872
sg11
F0.0048521568515294926
sg1717
F107.09916946049023
ssg16
(dp1719
g15
F0.96570437216110983
sg12
F0.0034637573429552627
sg11
F0.0033486055335069367
sg1717
F105.42982821816591
sssS'60_90'
p1720
(dp1721
g7
(dp1722
g12
F0.0019210984577622177
sg10
F0.99065313438466507
sg11
F0.0019018922911846297
sg1717
F69.73042191342131
ssg13
(dp1723
g15
F0.96123354494188984
sg12
F0.001411353413737737
sg11
F0.0014039187460573753
sg1717
F69.96668299525237
ssg16
(dp1724
g15
F0.97030283514819848
sg12
F0.0012291726986631418
sg11
F0.0012090300319602895
sg1717
F69.494160831590236
sssS'140_300'
p1725
(dp1726
g7
(dp1727
g12
F0.034302023476105462
sg10
F1.0096686694682793
sg11
F0.029568463987291172
sg1717
F178.19737892510955
ssg13
(dp1728
g15
F0.97390322999683399
sg12
F0.030731363512558174
sg11
F0.026096770003166014
sg1717
F184.52438166566643
ssg16
(dp1729
g15
F0.96457705329186816
sg12
F0.012143470010223884
sg11
F0.011396744173933326
sg1717
F171.87037618455267
sssS'50_60'
p1730
(dp1731
g7
(dp1732
g12
F0.0012023365060218334
sg10
F0.99561913315248807
sg11
F0.0011922562365497249
sg1717
F53.82326678974816
ssg13
(dp1733
g15
F0.96101743218364299
sg12
F0.00079017472080692634
sg11
F0.00078602082564566188
sg1717
F53.859463429280453
ssg16
(dp1734
g15
F0.96524604658883595
sg12
F0.00085374101443620894
sg11
F0.0008442694849050956
sg1717
F53.787070150215868
sssS'45_50'
p1735
(dp1736
g7
(dp1737
g12
F0.00049192498626027736
sg10
F0.99306541045390917
sg11
F0.00048966353656388587
sg1717
F47.113668175091803
ssg13
(dp1738
g15
F0.9604493085909015
sg12
F0.00047561252380763896
sg11
F0.00047342462931546314
sg1717
F47.121044573571105
ssg16
(dp1739
g15
F0.96715613944493395
sg12
F1.225769755663908e-05
sg11
F1.225769755663908e-05
sg1717
F47.106291776612494
ssssS'abseta_2p4pt45-500'
p1740
(dp1741
S'0.9_1.2'
p1742
(dp1743
g7
(dp1744
g9
F1.0483372836987956
sg10
F0.99230113580272283
sg11
F0.00059687420020034193
sg12
F0.00059962329584064807
ssg13
(dp1745
g9
F1.0487918576652573
sg12
F0.00040480930971140627
sg11
F0.00040359574225914984
sg15
F0.95867324434293599
ssg16
(dp1746
g9
F1.047882709732334
sg12
F0.00041760759707496132
sg11
F0.00041505962608179959
sg15
F0.9661112032965844
sssS'2.1_2.4'
p1747
(dp1748
g7
(dp1749
g9
F2.2435347236157992
sg10
F0.99225640447760277
sg11
F0.0012332959943209196
sg12
F0.0012388415651188175
ssg13
(dp1750
g9
F2.2447263859373856
sg12
F0.00087154972940038525
sg11
F0.00086934912227018524
sg15
F0.93982210044174241
ssg16
(dp1751
g9
F2.2423430612942128
sg12
F0.00079176093321456386
sg11
F0.00078631096856543524
sg15
F0.9471564972528792
sssS'1.2_2.1'
p1752
(dp1753
g7
(dp1754
g9
F1.609536721387737
sg10
F0.99490597676588266
sg11
F0.00044398743348066853
sg12
F0.00044513831826514263
ssg13
(dp1755
g9
F1.6049140892427087
sg12
F0.00029522764233430988
sg11
F0.00029472934129690781
sg15
F0.95058660656014093
ssg16
(dp1756
g9
F1.614159353532765
sg12
F0.00030771852351762575
sg11
F0.00030666585813765102
sg15
F0.95545370995778955
sssS'0_0.9'
p1757
(dp1758
g7
(dp1759
g9
F0.44045920982977249
sg10
F0.9899643672650712
sg11
F0.00032449623259064332
sg12
F0.00032532583276630384
ssg13
(dp1760
g9
F0.43822286907364932
sg12
F0.00022088224649272788
sg11
F0.00022051751819086494
sg15
F0.95540262830540112
ssg16
(dp1761
g9
F0.44269555058589571
sg12
F0.00022539185132528644
sg11
F0.00022461838449326914
sg15
F0.96508789598644629
ssssS'pt_45abseta2.1-2.4'
p1762
(dp1763
S'90_140'
p1764
(dp1765
g7
(dp1766
g12
F0.01151619525001747
sg10
F1.0417357230338913
sg11
F0.0090968822779836939
sg1717
F106.32462941376673
ssg13
(dp1767
g15
F0.99999999999922218
sg12
F0.006567808826342723
sg11
F7.7782225105238467e-13
sg1717
F107.38095673607525
ssg16
(dp1768
g15
F0.95993636187005249
sg12
F0.0085360320240720992
sg11
F0.0083825752397700265
sg1717
F105.26830209145822
sssS'60_90'
p1769
(dp1770
g7
(dp1771
g12
F0.0046931713032945929
sg10
F0.98575526481294851
sg11
F0.0046749593805646781
sg1717
F69.636630825122595
ssg13
(dp1772
g15
F0.94678945872699594
sg12
F0.0037555914122512574
sg11
F0.0037571326368213628
sg1717
F69.963178482353385
ssg16
(dp1773
g15
F0.96047111542097974
sg12
F0.0025289117705112399
sg11
F0.0024942949279232914
sg1717
F69.310083167891804
sssS'140_300'
p1774
(dp1775
g7
(dp1776
g12
F0.13467218981807683
sg10
F0.78984169746679123
sg11
F0.17355806043161731
sg1717
F180.58894671912245
ssg13
(dp1777
g15
F0.78984169746668464
sg12
F0.12546255462422537
sg11
F0.17355806043159389
sg1717
F185.92425177205018
ssg16
(dp1778
g15
F0.999999999999865
sg12
F0.061969834648108818
sg11
F1.3500311979441904e-13
sg1717
F175.25364166619471
sssS'50_60'
p1779
(dp1780
g7
(dp1781
g12
F0.0024673316963413445
sg10
F0.992397600889384
sg11
F0.0024516722845565942
sg1717
F53.839233741166822
ssg13
(dp1782
g15
F0.94148926773499042
sg12
F0.0017350633993982799
sg11
F0.0017293645770712191
sg1717
F53.88965330213594
ssg16
(dp1783
g15
F0.9487016765167815
sg12
F0.0015832527408552899
sg11
F0.001567271915085401
sg1717
F53.788814180197711
sssS'45_50'
p1784
(dp1785
g7
(dp1786
g12
F0.001489471824746873
sg10
F0.99795491055167518
sg11
F0.0014794696691089637
sg1717
F47.166192269785284
ssg13
(dp1787
g15
F0.94599791466331595
sg12
F0.00097196125983927729
sg11
F0.00096732070931482349
sg1717
F47.173100757155026
ssg16
(dp1788
g15
F0.94793652965780073
sg12
F0.0010262192187773316
sg11
F0.0010175305843690163
sg1717
F47.15928378241555
ssssS'pt_45abseta<0.9'
p1789
(dp1790
S'90_140'
p1791
(dp1792
g7
(dp1793
g12
F0.003106381947466764
sg10
F1.0025123245329706
sg11
F0.003079634534733651
sg1717
F106.3689654966831
ssg13
(dp1794
g15
F0.97155619179019626
sg12
F0.0024779690692275621
sg11
F0.0024701975821369107
sg1717
F107.08349792648507
ssg16
(dp1795
g15
F0.9691214442104783
sg12
F0.0017052616424668545
sg11
F0.0016707955919286561
sg1717
F105.65443306688114
sssS'60_90'
p1796
(dp1797
g7
(dp1798
g12
F0.00101703876572214
sg10
F0.98967050379186638
sg11
F0.0010114439273232279
sg1717
F69.784204062698933
ssg13
(dp1799
g15
F0.95685011596243008
sg12
F0.00074489542350069792
sg11
F0.00074273528829308072
sg1717
F70.037141855043927
ssg16
(dp1800
g15
F0.96683705566278189
sg12
F0.00064859597757812519
sg11
F0.00064274899174451947
sg1717
F69.531266270353939
sssS'140_300'
p1801
(dp1802
g7
(dp1803
g12
F0.017118181899529347
sg10
F1.0172123884031126
sg11
F0.017259996639145316
sg1717
F179.06876918186873
ssg13
(dp1804
g15
F0.96625332063900782
sg12
F0.014693612155261319
sg11
F0.014950182684753167
sg1717
F184.7964168817908
ssg16
(dp1805
g15
F0.94990321751379414
sg12
F0.0068467329558326876
sg11
F0.0066165490021280592
sg1717
F173.34112148194663
sssS'50_60'
p1806
(dp1807
g7
(dp1808
g12
F0.00064010231492389494
sg10
F0.99180512285449074
sg11
F0.0006371493515749992
sg1717
F53.857838541097834
ssg13
(dp1809
g15
F0.9576309477250966
sg12
F0.00042472810616756137
sg11
F0.00042358232678143024
sg1717
F53.905248902205891
ssg16
(dp1810
g15
F0.96554345773992556
sg12
F0.00045269489982451114
sg11
F0.00044982907143176182
sg1717
F53.810428179989771
sssS'45_50'
p1811
(dp1812
g7
(dp1813
g12
F0.00041385386044939576
sg10
F0.992936248213657
sg11
F0.00041227321865278858
sg1717
F47.112749131819655
ssg13
(dp1814
g15
F0.957905001179435
sg12
F0.00026020709512438855
sg11
F0.00025952875533777684
sg1717
F47.119984285583378
ssg16
(dp1815
g15
F0.96471954055736708
sg12
F0.00030496627765226467
sg11
F0.00030352820652992615
sg1717
F47.105513978055924
ssssS'pt_45abseta1.2-2.1'
p1816
(dp1817
S'90_140'
p1818
(dp1819
g7
(dp1820
g12
F0.0051841191487989619
sg10
F1.0201435871157301
sg11
F0.0051521987885455051
sg1717
F106.35023202327108
ssg13
(dp1821
g15
F0.98095979312797343
sg12
F0.0042398058644588189
sg11
F0.0042343683449123743
sg1717
F107.2957339173381
ssg16
(dp1822
g15
F0.96158992274946153
sg12
F0.0025701057825358292
sg11
F0.0025212238761111792
sg1717
F105.40473012920405
sssS'60_90'
p1823
(dp1824
g7
(dp1825
g12
F0.0014863565578070467
sg10
F0.99203440309403812
sg11
F0.0014784310524921984
sg1717
F69.739895713620612
ssg13
(dp1826
g15
F0.95105635572996805
sg12
F0.0010893194794042399
sg11
F0.0010865210895736467
sg1717
F69.99399198689494
ssg16
(dp1827
g15
F0.95869291706389981
sg12
F0.00092601254743203735
sg11
F0.00091746484430995756
sg1717
F69.485799440346284
sssS'140_300'
p1828
(dp1829
g7
(dp1830
g12
F0.028929136734659255
sg10
F0.98332411682382492
sg11
F0.029864356690191794
sg1717
F179.38283263389781
ssg13
(dp1831
g15
F0.94724797809224603
sg12
F0.025688672601247749
sg11
F0.026793313928591633
sg1717
F185.17577627372845
ssg16
(dp1832
g15
F0.96331205742405035
sg12
F0.010986242329582412
sg11
F0.010654123098169307
sg1717
F173.58988899406717
sssS'50_60'
p1833
(dp1834
g7
(dp1835
g12
F0.00088714871977122183
sg10
F0.99676630905358665
sg11
F0.00088297581957196079
sg1717
F53.831529771405442
ssg13
(dp1836
g15
F0.95315139346888167
sg12
F0.00057811289553165262
sg11
F0.0005762418734035317
sg1717
F53.874348798347938
ssg16
(dp1837
g15
F0.95624358970748458
sg12
F0.00062286012277098428
sg11
F0.00061913683430467109
sg1717
F53.788710744462946
sssS'45_50'
p1838
(dp1839
g7
(dp1840
g12
F0.00035602451316299791
sg10
F0.99792413189550033
sg11
F0.00035515119593249809
sg1717
F47.119857957406666
ssg13
(dp1841
g15
F0.95362547615964766
sg12
F0.00033985255357644426
sg11
F0.00033901709833400966
sg1717
F47.127679294234753
ssg16
(dp1842
g15
F0.95560919480751516
sg12
F1.5847233319710163e-05
sg11
F1.5847233319710163e-05
sg1717
F47.112036620578586
sssss.