(dp0
S'Mu40'
p1
(dp2
S'TightID'
p3
(dp4
S'PT_ABSETA_Endcaps_1p2to2p1'
p5
(dp6
S'90_140'
p7
(dp8
S'data/mc'
p9
(dp10
g5
F104.06496551612639
sS'err_low'
p11
F0.0080940506658807466
sS'efficiency_ratio'
p12
F0.98007074396430627
sS'err_hi'
p13
F0.0079973309145686521
ssS'data'
p14
(dp15
g5
F104.2472459867498
sS'efficiency'
p16
F0.83025783811940534
sg13
F0.0040350905397231896
sg11
F0.0040743960061309934
ssS'mc'
p17
(dp18
g5
F104.06496551612639
sg16
F0.8471407224758899
sg13
F0.0055527983729521373
sg11
F0.0056271242225030505
sssS'140_500'
p19
(dp20
g9
(dp21
g5
F170.64054037400578
sg11
F0.028743380378063538
sg12
F1.0043200815036302
sg13
F0.028109271730039007
ssg14
(dp22
g5
F168.21386196487603
sg16
F0.82702910206553493
sg13
F0.01126817440755673
sg11
F0.011663869927879428
ssg17
(dp23
g5
F170.64054037400578
sg16
F0.82347163747571206
sg13
F0.020132338188093835
sg11
F0.020507344800907459
sssS'60_90'
p24
(dp25
g9
(dp26
g5
F68.690604083042203
sg11
F0.0025036620256638619
sg12
F0.9864704135899296
sg13
F0.0024956025534343005
ssg14
(dp27
g5
F68.619785172867708
sg16
F0.83047440186846
sg13
F0.0012168012713711645
sg11
F0.0012206369627924623
ssg17
(dp28
g5
F68.690604083042203
sg16
F0.84186448009750825
sg13
F0.0017362144087536865
sg11
F0.001741889104670059
sssS'50_60'
p29
(dp30
g9
(dp31
g5
F53.736622622585799
sg11
F0.0015521288397695376
sg12
F0.98772947901722596
sg13
F0.0015492983395586826
ssg14
(dp32
g5
F53.753035802111476
sg16
F0.83030529759933258
sg13
F0.00075681459026115871
sg11
F0.00075831411273264652
ssg17
(dp33
g5
F53.736622622585799
sg16
F0.84062014472370739
sg13
F0.0010730742156839039
sg11
F0.0010749501896412535
sssS'45_50'
p34
(dp35
g9
(dp36
g5
F47.104040208031073
sg11
F0.0011023088945697718
sg12
F0.99252618619121447
sg13
F0.0010978974087980152
ssg14
(dp37
g5
F47.110738520628026
sg16
F0.82900373672942584
sg13
F0.00052743606610397347
sg11
F0.00052835826262943376
ssg17
(dp38
g5
F47.104040208031073
sg16
F0.83524621139790733
sg13
F0.00075580007153229988
sg11
F0.00075968356830389302
ssssS'ETA_0to0p9_0p9to1p2_1p2to2p1'
p39
(dp40
S'0.9_1.2'
p41
(dp42
g9
(dp43
g39
F1.046944317499815
sg12
F0.96218674051584274
sg13
F0.0010271701375309894
sg11
F0.0010295177513091731
ssg14
(dp44
g39
F1.0468591038709874
sg11
F0.00056221853281228698
sg13
F0.00056121208484825262
sg16
F0.84710878109534249
ssg17
(dp45
g39
F1.046944317499815
sg11
F0.00073888819872788044
sg13
F0.00073697672386227684
sg16
F0.88039955803298098
sssS'1.2_2.1'
p46
(dp47
g9
(dp48
g39
F1.5946406474317854
sg12
F0.99056097116958886
sg13
F0.00085166239530921222
sg11
F0.00085263812385361602
ssg14
(dp49
g39
F1.5903696310493025
sg11
F0.00041456777521642351
sg13
F0.0004142861393674008
sg16
F0.82980397163846242
ssg17
(dp50
g39
F1.5946406474317854
sg11
F0.00058718433702957496
sg13
F0.00058637362100147665
sg16
F0.83771115134758922
sssS'0_0.9'
p51
(dp52
g9
(dp53
g39
F0.44188353094316252
sg12
F0.98272258712072402
sg13
F0.00030369289461041493
sg11
F0.00030348424261183521
ssg14
(dp54
g39
F0.44189858746618615
sg11
F0.00018572376407781249
sg13
F0.0001857721613083521
sg16
F0.94744191384756427
ssg17
(dp55
g39
F0.44188353094316252
sg11
F0.00023006097144357944
sg13
F0.00023028540103463234
sg16
F0.96409905121187001
ssssS'PT_ABSETA_Transition_0p9to1p2'
p56
(dp57
S'90_140'
p58
(dp59
g9
(dp60
g11
F0.010462271589453608
sg56
F104.48320204950018
sg12
F0.96338073919260103
sg13
F0.010206463956504812
ssg14
(dp61
g16
F0.84530542678004161
sg56
F104.48671043509304
sg13
F0.0054934896714164076
sg11
F0.0055903667020273436
ssg17
(dp62
g16
F0.87743650292249242
sg56
F104.48320204950018
sg13
F0.0073415342616662566
sg11
F0.0075582480858210153
sssS'140_500'
p63
(dp64
g9
(dp65
g11
F0.027576772754049825
sg56
F174.23405032118944
sg12
F0.97686624717141324
sg13
F0.025512592931072175
ssg14
(dp66
g16
F0.86683089209310271
sg56
F170.84353371386257
sg13
F0.015161022104033679
sg11
F0.016023891460001542
ssg17
(dp67
g16
F0.88735883198244814
sg56
F174.23405032118944
sg13
F0.017210635728595148
sg11
F0.018932296447181359
sssS'60_90'
p68
(dp69
g9
(dp70
g11
F0.003010134870114963
sg56
F68.707180498599001
sg12
F0.9588386016873337
sg13
F0.0029891970217034978
ssg14
(dp71
g16
F0.84458156900236336
sg56
F68.696643999500623
sg13
F0.0016414986002954426
sg11
F0.0016473577308301363
ssg17
(dp72
g16
F0.8808380967517323
sg56
F68.707180498599001
sg13
F0.0021470560000457499
sg11
F0.0021667711117602192
sssS'50_60'
p73
(dp74
g9
(dp75
g11
F0.0019017638618518745
sg56
F53.730306467535478
sg12
F0.96040413494581911
sg13
F0.0019026307936563143
ssg14
(dp76
g16
F0.84771535767751405
sg56
F53.754460353621553
sg13
F0.0010240741355148017
sg11
F0.0010266039976022626
ssg17
(dp77
g16
F0.88266525187892664
sg56
F53.730306467535478
sg13
F0.0013858940038897485
sg11
F0.0013828564024345221
sssS'45_50'
p78
(dp79
g9
(dp80
g11
F0.0013333612177506395
sg56
F47.093524658414736
sg12
F0.96362363189742306
sg13
F0.0013264746424183694
ssg14
(dp81
g16
F0.84726102833930095
sg56
F47.099745073234971
sg13
F0.00071843880131148056
sg11
F0.00072156933456203002
ssg17
(dp82
g16
F0.87924475935796809
sg56
F47.093524658414736
sg13
F0.00095342687399641523
sg11
F0.00095886275918542101
ssssS'ETA'
p83
(dp84
S'-0.2_0.2'
p85
(dp86
g9
(dp87
g11
F0.00057960395876615397
sg83
F-9.6890528422780863e-05
sg12
F0.98727495152173683
sg13
F0.00057607166666828714
ssg14
(dp88
g16
F0.95717102557458822
sg83
F2.1681446989503711e-05
sg13
F0.00035466704187660263
sg11
F0.00035529427081529394
ssg17
(dp89
g16
F0.96950806267215839
sg83
F-9.6890528422780863e-05
sg13
F0.00043700074914549883
sg11
F0.00044096414156068317
sssS'-2.1_-1.6'
p90
(dp91
g9
(dp92
g11
F0.0020321025442010623
sg83
F-1.8336996862370551
sg12
F0.99455522087603121
sg13
F0.0020287048286457055
ssg14
(dp93
g16
F0.79796650804672309
sg83
F-1.8338072873757505
sg13
F0.00094037261285670698
sg11
F0.0009414194498252095
ssg17
(dp94
g16
F0.80233504515098975
sg83
F-1.8336996862370551
sg13
F0.0013358477560407452
sg11
F0.0013384607539309256
sssS'-1.2_-0.9'
p95
(dp96
g9
(dp97
g11
F0.0014459692152370743
sg83
F-1.0469531624380912
sg12
F0.96280245286675536
sg13
F0.0014416702083809461
ssg14
(dp98
g16
F0.84893325288998756
sg83
F-1.0472027747891437
sg13
F0.00079201141159188039
sg11
F0.00079335893613320739
ssg17
(dp99
g16
F0.88173150199428663
sg83
F-1.0469531624380912
sg13
F0.0010326875616957678
sg11
F0.0010366052386506163
sssS'1.6_2.1'
p100
(dp101
g9
(dp102
g11
F0.001752701680380135
sg83
F1.8323248522647635
sg12
F1.0146256688068478
sg13
F0.0017480447554641845
ssg14
(dp103
g16
F0.85318805779999551
sg83
F1.8321918911937547
sg13
F0.00081432768605969083
sg11
F0.00081600551798174405
ssg17
(dp104
g16
F0.84088948666487473
sg83
F1.8323248522647635
sg13
F0.0012060892950449974
sg11
F0.0012096246871870994
sssS'0.9_1.2'
p105
(dp106
g9
(dp107
g11
F0.0014667798041386947
sg83
F1.0469354051860735
sg12
F0.96157569947543131
sg13
F0.0014631743314717218
ssg14
(dp108
g16
F0.84527958634922307
sg83
F1.0465120567367137
sg13
F0.00079473416746440255
sg11
F0.00079593234524718453
ssg17
(dp109
g16
F0.87905672617387143
sg83
F1.0469354051860735
sg13
F0.0010517186768787055
sg11
F0.0010549310271969071
sssS'-0.3_-0.2'
p110
(dp111
g9
(dp112
g11
F0.0018000487498260917
sg83
F-0.24979744121084924
sg12
F0.94845189729577339
sg13
F0.0017978451509330874
ssg14
(dp113
g16
F0.88811365994787761
sg83
F-0.24972163525418714
sg13
F0.0011256693368897023
sg11
F0.0011309671330982465
ssg17
(dp114
g16
F0.93638239586010408
sg83
F-0.24979744121084924
sg13
F0.001319809045871434
sg11
F0.0013177001536949248
sssS'-0.6_-0.3'
p115
(dp116
g9
(dp117
g11
F0.00064107593979847554
sg83
F-0.4487776887674596
sg12
F0.98861474181147635
sg13
F0.00063724358276991632
ssg14
(dp118
g16
F0.96047036412166786
sg83
F-0.44868020031397587
sg13
F0.00039176433867983598
sg11
F0.00039406572411918863
ssg17
(dp119
g16
F0.97153150109997499
sg83
F-0.4487776887674596
sg13
F0.00048490395942221042
sg11
F0.00048786533866816809
sssS'1.2_1.6'
p120
(dp121
g9
(dp122
g11
F0.0015882537426466178
sg83
F1.3913980240188539
sg12
F0.96703355996746099
sg13
F0.0015850386929282881
ssg14
(dp123
g16
F0.81859367946630868
sg83
F1.390213066621188
sg13
F0.0008131812346883451
sg11
F0.00081410684785327217
ssg17
(dp124
g16
F0.84649976314560682
sg83
F1.3913980240188539
sg13
F0.001103616471132997
sg11
F0.0011064249356381912
sssS'0.2_0.3'
p125
(dp126
g9
(dp127
g11
F0.0017003698230138619
sg83
F0.25004017640219556
sg12
F0.96474005761787729
sg13
F0.0016880865509831965
ssg14
(dp128
g16
F0.9085702335131034
sg83
F0.24986765116014628
sg13
F0.0010409978714361447
sg11
F0.0010451706797073798
ssg17
(dp129
g16
F0.94177724490525705
sg83
F0.25004017640219556
sg13
F0.0012454951502661204
sg11
F0.0012576043089830369
sssS'0.6_0.9'
p130
(dp131
g9
(dp132
g11
F0.00080867257654833639
sg83
F0.74744201827809076
sg12
F0.98456051564603908
sg13
F0.0008038268817231423
ssg14
(dp133
g16
F0.94429723101438001
sg83
F0.74672961729771004
sg13
F0.00048227284542516884
sg11
F0.00048388771466626861
ssg17
(dp134
g16
F0.95910532263703518
sg83
F0.74744201827809076
sg13
F0.00061091704077759321
sg11
F0.00061565002901088194
sssS'-0.9_-0.6'
p135
(dp136
g9
(dp137
g11
F0.00081494442457445942
sg83
F-0.74665354865783151
sg12
F0.98215637566811476
sg13
F0.00081195045820208682
ssg14
(dp138
g16
F0.94256775654012692
sg83
F-0.74682492639409104
sg13
F0.0004854707626562185
sg11
F0.00048702961185885556
ssg17
(dp139
g16
F0.95969214260706948
sg83
F-0.74665354865783151
sg13
F0.00062058626775810259
sg11
F0.00062306207559425283
sssS'-1.6_-1.2'
p140
(dp141
g9
(dp142
g11
F0.0015179493465162827
sg83
F-1.3907770993996948
sg12
F0.98920444751653147
sg13
F0.0015141605078459737
ssg14
(dp143
g16
F0.84679059335928097
sg83
F-1.3898641111204513
sg13
F0.0007544399114439163
sg11
F0.00075537825229116443
ssg17
(dp144
g16
F0.85603193099789365
sg83
F-1.3907770993996948
sg13
F0.001065483710795224
sg11
F0.0010688362361165021
sssS'0.3_0.6'
p145
(dp146
g9
(dp147
g11
F0.00064103199447014395
sg83
F0.44939694950301629
sg12
F0.98478219463788563
sg13
F0.00063705772283433775
ssg14
(dp148
g16
F0.9587147297680747
sg83
F0.44903913950785973
sg13
F0.000392395550208672
sg11
F0.00039388327735338357
ssg17
(dp149
g16
F0.97352971549267686
sg83
F0.44939694950301629
sg13
F0.00048769987386892467
sg11
F0.00049153741010179465
ssssS'VTX'
p150
(dp151
S'4.5_6.5'
p152
(dp153
g9
(dp154
g150
F5.627296442050068
sg12
F0.98612620763716274
sg13
F0.0016559880248784593
sg11
F0.0016703116413473212
ssg14
(dp155
g150
F5.6237789925619364
sg11
F0.0008475606389138253
sg13
F0.0008449708262182633
sg16
F0.91485388402099721
ssg17
(dp156
g150
F5.627296442050068
sg11
F0.0013155056330220497
sg13
F0.0013011126687722499
sg16
F0.92772494730979749
sssS'20.5_22.5'
p157
(dp158
g9
(dp159
g150
F21.445816503031587
sg12
F0.9767296903324858
sg13
F0.0015664296157521071
sg11
F0.0015720426933051328
ssg14
(dp160
g150
F21.44008515815085
sg11
F0.00090982392149670493
sg13
F0.00090789880145340568
sg16
F0.87717034179882636
ssg17
(dp161
g150
F21.445816503031587
sg11
F0.0011052595296508411
sg13
F0.0011001697294472331
sg16
F0.89806867803950063
sssS'16.5_18.5'
p162
(dp163
g9
(dp164
g150
F17.471842515335112
sg12
F0.97818702661835377
sg13
F0.0010477892594365661
sg11
F0.001050561598822317
ssg14
(dp165
g150
F17.463611303196899
sg11
F0.00059558059579403375
sg13
F0.00059451893177036425
sg16
F0.8865519683172749
ssg17
(dp166
g150
F17.471842515335112
sg11
F0.00075944316311607365
sg13
F0.00075702075219585732
sg16
F0.90632153585407249
sssS'12.5_14.5'
p167
(dp168
g9
(dp169
g150
F13.499654347546857
sg12
F0.98104093760710542
sg13
F0.00087028946927858529
sg11
F0.00087240245580344716
ssg14
(dp170
g150
F13.492886744400725
sg11
F0.00047610880795330765
sg13
F0.0004754086421992581
sg16
F0.89656311884975526
ssg17
(dp171
g150
F13.499654347546857
sg11
F0.00065187043670286758
sg13
F0.00064994757154653439
sg16
F0.91388960896636662
sssS'22.5_24.5'
p172
(dp173
g9
(dp174
g150
F23.434261290659137
sg12
F0.97678727013133571
sg13
F0.002093226391886872
sg11
F0.0021048088844574857
ssg14
(dp175
g150
F23.423258885686838
sg11
F0.0012293130610320198
sg13
F0.0012249705427296287
sg16
F0.87298024094599269
ssg17
(dp176
g150
F23.434261290659137
sg11
F0.0014577094147034501
sg13
F0.0014475431649631776
sg16
F0.89372606261403731
sssS'2.5_4.5'
p177
(dp178
g9
(dp179
g150
F3.7139380482970834
sg12
F0.98787093668013137
sg13
F0.0031366977625559103
sg11
F0.0031750424763604184
ssg14
(dp180
g150
F3.7091852303936528
sg11
F0.0015997889234364313
sg13
F0.0015852638830541144
sg16
F0.91949204007506546
ssg17
(dp181
g150
F3.7139380482970834
sg11
F0.0025153227479497572
sg13
F0.0024818133377891042
sg16
F0.93078154841272887
sssS'24.5_26.5'
p182
(dp183
g9
(dp184
g150
F25.413591297274195
sg12
F0.9753320505646359
sg13
F0.0029123572332310022
sg11
F0.0029304497764563245
ssg14
(dp185
g150
F25.409554318851423
sg11
F0.0017658481002630264
sg13
F0.0017578526383352688
sg16
F0.86852835677977946
ssg17
(dp186
g150
F25.413591297274195
sg11
F0.001969931441567927
sg13
F0.0019550257529929809
sg16
F0.89049504348490749
sssS'18.5_20.5'
p187
(dp188
g9
(dp189
g150
F19.459473976676566
sg12
F0.97577669840120618
sg13
F0.0012462924659868437
sg11
F0.0012492207517351569
ssg14
(dp190
g150
F19.449490122493359
sg11
F0.00071691724611592177
sg13
F0.0007153937096737522
sg16
F0.88143869780026951
ssg17
(dp191
g150
F19.459473976676566
sg11
F0.00089308072346319363
sg13
F0.00089085488655411046
sg16
F0.90332009284961623
sssS'14.5_16.5'
p192
(dp193
g9
(dp194
g150
F15.48440204878483
sg12
F0.97924212543993494
sg13
F0.00093171860465434255
sg11
F0.00093407819638998953
ssg14
(dp195
g150
F15.477318956738905
sg11
F0.00052103933747069358
sg13
F0.00052039819558818588
sg16
F0.89138997925782792
ssg17
(dp196
g150
F15.48440204878483
sg11
F0.00068617396075902929
sg13
F0.00068390548159428318
sg16
F0.91028557299591406
sssS'0.5_2.5'
p197
(dp198
g9
(dp199
g150
F1.8716377246942275
sg12
F0.98365526526395186
sg13
F0.0093138132454706792
sg11
F0.0098829370031320533
ssg14
(dp200
g150
F1.8707199999999999
sg11
F0.0053680522999138723
sg13
F0.0051872082934290731
sg16
F0.92052918761005498
ssg17
(dp201
g150
F1.8716377246942275
sg11
F0.0076565759849255913
sg13
F0.0071209061956331405
sg16
F0.9358249989777081
sssS'8.5_10.5'
p202
(dp203
g9
(dp204
g150
F9.5375551084710146
sg12
F0.98524101384257501
sg13
F0.00093758804001483947
sg11
F0.00094057836257739787
ssg14
(dp205
g150
F9.5338213838426871
sg11
F0.00049437692581808369
sg13
F0.00049348306485088396
sg16
F0.90695451593110576
ssg17
(dp206
g150
F9.5375551084710146
sg11
F0.00072147281001060169
sg13
F0.00071870006022710766
sg16
F0.92054076432918563
sssS'28.5_30.5'
p207
(dp208
g9
(dp209
g150
F29.404202548825594
sg12
F0.96826302014698762
sg13
F0.0063756805828983614
sg11
F0.0064800699961505273
ssg14
(dp210
g150
F29.386163813049514
sg11
F0.0038386398977098618
sg13
F0.0037923382896466119
sg16
F0.86247383671576316
ssg17
(dp211
g150
F29.404202548825594
sg11
F0.0044519457817439869
sg13
F0.0043658866983230403
sg16
F0.89074334015651546
sssS'10.5_12.5'
p212
(dp213
g9
(dp214
g150
F11.517075789382941
sg12
F0.98359479386034765
sg13
F0.00086678748958584565
sg11
F0.00086916568786590213
ssg14
(dp215
g150
F11.509997507728229
sg11
F0.00046588960761389262
sg13
F0.00046511535139623161
sg16
F0.90263371669145687
ssg17
(dp216
g150
F11.517075789382941
sg11
F0.00065821612974574777
sg13
F0.00065604865319397938
sg16
F0.91768858713541979
sssS'26.5_28.5'
p217
(dp218
g9
(dp219
g150
F27.40816392215163
sg12
F0.97218801860643311
sg13
F0.0042081566973019239
sg11
F0.004240308815423568
ssg14
(dp220
g150
F27.390972600703563
sg11
F0.0026190271971080464
sg13
F0.0025925785504216539
sg16
F0.86685173729434917
ssg17
(dp221
g150
F27.40816392215163
sg11
F0.0028048555473412663
sg13
F0.0027900823056710719
sg16
F0.89165029881454771
sssS'6.5_8.5'
p222
(dp223
g9
(dp224
g150
F7.5747933728768153
sg12
F0.98644384531200591
sg13
F0.0011266333699020976
sg11
F0.001131505208095509
ssg14
(dp225
g150
F7.5699728939022801
sg11
F0.00059269615864966326
sg13
F0.00059122233735260643
sg16
F0.91166164502607505
ssg17
(dp226
g150
F7.5747933728768153
sg11
F0.00087338131446112056
sg13
F0.00086886797425746154
sg16
F0.92419010910623334
ssssS'PT_ABSETA_Barrel_0to0p9'
p227
(dp228
S'90_140'
p229
(dp230
g9
(dp231
g11
F0.0031406538786671197
sg12
F0.98046038394581836
sg227
F104.51946790586761
sg13
F0.0030590269536138639
ssg14
(dp232
g16
F0.94021665073747807
sg13
F0.0018413450317788303
sg227
F104.49530353567646
sg11
F0.0018703386939364695
ssg17
(dp233
g16
F0.95895424856802347
sg13
F0.0023290758642328414
sg227
F104.51946790586761
sg11
F0.0024076442317164156
sssS'140_500'
p234
(dp235
g9
(dp236
g11
F0.0087486431121217342
sg12
F0.98006467958412713
sg227
F174.73115556367304
sg13
F0.0081239664810014347
ssg14
(dp237
g16
F0.93775435214097302
sg13
F0.0050828067213825245
sg227
F170.9297132023566
sg11
F0.0053694288170304232
ssg17
(dp238
g16
F0.95682904575123784
sg13
F0.006000822608712395
sg227
F174.73115556367304
sg11
F0.0065526328738974987
sssS'60_90'
p239
(dp240
g9
(dp241
g11
F0.00089041390993355618
sg12
F0.98337610368748063
sg227
F68.720023521349219
sg13
F0.00088187863690559684
ssg14
(dp242
g16
F0.94676525921218069
sg13
F0.00053901763234084855
sg227
F68.707252784549951
sg11
F0.00054104316304470009
ssg17
(dp243
g16
F0.96277025205512323
sg13
F0.00066709271437980888
sg227
F68.720023521349219
sg11
F0.00067620270405091369
sssS'50_60'
p244
(dp245
g9
(dp246
g11
F0.00055705769189001448
sg12
F0.98278381236636303
sg227
F53.749378213196643
sg13
F0.00055624958760158347
ssg14
(dp247
g16
F0.94792087989888674
sg13
F0.00033649558680953014
sg227
F53.78251541296661
sg11
F0.00033695311734667889
ssg17
(dp248
g16
F0.96452634645707813
sg13
F0.00042519780520149867
sg227
F53.749378213196643
sg11
F0.00042584118217804207
sssS'45_50'
p249
(dp250
g9
(dp251
g11
F0.00038840196117630296
sg12
F0.98262008581714266
sg227
F47.096797759173519
sg13
F0.00038683070285235423
ssg14
(dp252
g16
F0.94745455424652858
sg13
F0.00023817037448992548
sg227
F47.100548261557115
sg11
F0.00023885414063859838
ssg17
(dp253
g16
F0.96421248448084529
sg13
F0.00029212088219241037
sg227
F47.096797759173519
sg11
F0.00029354672048589609
sssssS'HighPTID_TrkIso'
p254
(dp255
g5
(dp256
S'90_140'
p257
(dp258
g9
(dp259
g5
F104.15801804251016
sg11
F0.010247368441492273
sg12
F0.98446278732212722
sg13
F0.010134941508434487
ssg14
(dp260
g5
F105.9488359760476
sg16
F0.80742283005919846
sg13
F0.005758861295096728
sg11
F0.0057814308666969839
ssg17
(dp261
g5
F104.15801804251016
sg16
F0.82016592242709185
sg13
F0.0060888007966020405
sg11
F0.0061963885335639306
sssS'140_500'
p262
(dp263
g9
(dp264
g5
F171.66986441437496
sg11
F0.041549551498864669
sg12
F0.98654401172122352
sg13
F0.041888531893133248
ssg14
(dp265
g5
F204.62619925360903
sg16
F0.7835923023137924
sg13
F0.026494941087369567
sg11
F0.025744099186055719
ssg17
(dp266
g5
F171.66986441437496
sg16
F0.7942801263844872
sg13
F0.020398918946085937
sg11
F0.020930422536997641
sssS'60_90'
p267
(dp268
g9
(dp269
g5
F68.703627401528848
sg11
F0.0027528070186803692
sg12
F0.97275413822280177
sg13
F0.0027443658219727081
ssg14
(dp270
g5
F68.969001980854415
sg16
F0.79657719773940094
sg13
F0.0014048733045774395
sg11
F0.0014083753028793086
ssg17
(dp271
g5
F68.703627401528848
sg16
F0.81888852119892097
sg13
F0.0018032173352088743
sg11
F0.0018094378443475074
sssS'50_60'
p272
(dp273
g9
(dp274
g5
F53.738884648267188
sg11
F0.0016913391625648366
sg12
F0.98119434042358034
sg13
F0.0016893044518657085
ssg14
(dp275
g5
F53.780219691592009
sg16
F0.80269992584931904
sg13
F0.00083613741389256338
sg11
F0.00083727479341542911
ssg17
(dp276
g5
F53.738884648267188
sg16
F0.81808454531320929
sg13
F0.0011214445685436825
sg11
F0.001122694404133202
sssS'45_50'
p277
(dp278
g9
(dp279
g5
F47.104865554465334
sg11
F0.00094687300327008471
sg12
F0.98786867871953543
sg13
F0.00094516106993145161
ssg14
(dp280
g5
F47.115511656401409
sg16
F0.80349265353519705
sg13
F4.117474390041842e-05
sg11
F4.117474390041842e-05
ssg17
(dp281
g5
F47.104865554465334
sg16
F0.81335978237175754
sg13
F0.00077707954759997889
sg11
F0.00077849108705996847
ssssg39
(dp282
S'0.9_1.2'
p283
(dp284
g9
(dp285
g39
F1.0469530819919313
sg12
F0.95551713895338442
sg13
F0.001092728868294251
sg11
F0.001094486515049322
ssg14
(dp286
g39
F1.0470669251949554
sg11
F0.00060623671561845784
sg13
F0.00060515161272996221
sg16
F0.8313685779285187
ssg17
(dp287
g39
F1.0469530819919313
sg11
F0.00076857090095200321
sg13
F0.00076743299490642577
sg16
F0.87007186374401346
sssS'1.2_2.1'
p288
(dp289
g9
(dp290
g39
F1.596473999546296
sg12
F0.98422309463573754
sg13
F0.00092554104587511858
sg11
F0.00092661456793982123
ssg14
(dp291
g39
F1.5939045750514789
sg11
F0.00045718317897353662
sg13
F0.00045678652685993354
sg16
F0.80268881336602482
ssg17
(dp292
g39
F1.596473999546296
sg11
F0.00061137213358415275
sg13
F0.00061056112754858901
sg16
F0.81555575940137959
sssS'0_0.9'
p293
(dp294
g9
(dp295
g39
F0.44054213513340923
sg12
F0.97684339746759064
sg13
F0.00037193666659225612
sg11
F0.00037300613719637123
ssg14
(dp296
g39
F0.43915166539382428
sg11
F0.00023359748750444178
sg13
F0.00023312442180508584
sg16
F0.92897721307017878
ssg17
(dp297
g39
F0.44054213513340923
sg11
F0.0002732824633105205
sg13
F0.00027232258616482444
sg16
F0.95099912174100565
ssssg56
(dp298
S'90_140'
p299
(dp300
g9
(dp301
g11
F0.0116601836138964
sg56
F104.52394581840564
sg12
F0.95283891556948974
sg13
F0.011438194869766178
ssg14
(dp302
g16
F0.82588614161479801
sg56
F105.63436675013016
sg13
F0.0067806252107966746
sg11
F0.0068468381147997774
ssg17
(dp303
g16
F0.86676365555576096
sg56
F104.52394581840564
sg13
F0.0075908854699266049
sg11
F0.0078019686629251543
sssS'140_500'
p304
(dp305
g9
(dp306
g11
F0.038021684485233423
sg56
F174.36558188466861
sg12
F0.96106899424746817
sg13
F0.037362219168073828
ssg14
(dp307
g16
F0.84122250647883612
sg56
F198.74672881787578
sg13
F0.027985378117161414
sg11
F0.02773642355817494
ssg17
(dp308
g16
F0.87529876784499361
sg56
F174.36558188466861
sg13
F0.017606172104374294
sg11
F0.019137186153148994
sssS'60_90'
p309
(dp310
g9
(dp311
g11
F0.0032114736989633779
sg56
F68.721643141487689
sg12
F0.94697830498013824
sg13
F0.0031948418364639596
ssg14
(dp312
g16
F0.82516905229795534
sg56
F68.890848222274045
sg13
F0.0018216911394165036
sg11
F0.0018288826353122021
ssg17
(dp313
g16
F0.87137059841646769
sg56
F68.721643141487689
sg13
F0.0022229768892345131
sg11
F0.0022366415072292384
sssS'50_60'
p314
(dp315
g9
(dp316
g11
F0.0020445196314479875
sg56
F53.727864647434778
sg12
F0.95427685271103924
sg13
F0.0020366406826881614
ssg14
(dp317
g16
F0.83235008212342265
sg56
F53.770475262343602
sg13
F0.0011082252579689925
sg11
F0.0011109890814206059
ssg17
(dp318
g16
F0.87223123955985049
sg56
F53.727864647434778
sg13
F0.0014548693519078977
sg11
F0.0014617705732321601
sssS'45_50'
p319
(dp320
g9
(dp321
g11
F0.001399925810407861
sg56
F47.096190415283935
sg12
F0.95691765761179037
sg13
F0.0013920522091489074
ssg14
(dp322
g16
F0.83127188442142197
sg56
F47.104758239950073
sg13
F0.00077405321798055529
sg11
F0.00077586662657459261
ssg17
(dp323
g16
F0.86869740338583934
sg56
F47.096190415283935
sg13
F0.00097090401700799796
sg11
F0.00097862232417357509
ssssg83
(dp324
S'-0.2_0.2'
p325
(dp326
g9
(dp327
g11
F0.00069220428578854504
sg83
F-4.3808071085496604e-05
sg12
F0.98256433015500777
sg13
F0.00068792520187090393
ssg14
(dp328
g16
F0.94554765775323135
sg83
F-0.00013918143884971741
sg13
F0.00044402764642781259
sg11
F0.00044569480299784016
ssg17
(dp329
g16
F0.96232646426729462
sg83
F-4.3808071085496604e-05
sg13
F0.00049972720430157126
sg11
F0.00050384102524250014
sssS'-2.1_-1.6'
p330
(dp331
g9
(dp332
g11
F0.0022369272999114525
sg83
F-1.8289729343772101
sg12
F0.97436551680482753
sg13
F0.0022340053391802211
ssg14
(dp333
g16
F0.74359159978185652
sg83
F-1.828640160988003
sg13
F0.0010383759800393897
sg11
F0.0010397405287267665
ssg17
(dp334
g16
F0.76315467548591753
sg83
F-1.8289729343772101
sg13
F0.0013877695484016349
sg11
F0.001389579627304186
sssS'-1.2_-0.9'
p335
(dp336
g9
(dp337
g11
F0.0015338379575078997
sg83
F-1.0468754386895107
sg12
F0.95599945066942849
sg13
F0.0015304041427780012
ssg14
(dp338
g16
F0.83329282072285982
sg83
F-1.0472677846961147
sg13
F0.00085106549160593188
sg11
F0.00085297477488941505
ssg17
(dp339
g16
F0.87164571082060283
sg83
F-1.0468754386895107
sg13
F0.0010744899274755836
sg11
F0.0010769010348309963
sssS'1.6_2.1'
p340
(dp341
g9
(dp342
g11
F0.0019575780268190237
sg83
F1.8296012524340619
sg12
F1.0061769280076933
sg13
F0.0019534714670807886
ssg14
(dp343
g16
F0.81404735546269325
sg83
F1.8290999590766601
sg13
F0.00092875199347402777
sg11
F0.00093047604857196303
ssg17
(dp344
g16
F0.80904991239917301
sg83
F1.8296012524340619
sg13
F0.001270922704389674
sg11
F0.0012737592206635087
sssS'0.9_1.2'
p345
(dp346
g9
(dp347
g11
F0.0015627102951731105
sg83
F1.0470310483246388
sg12
F0.9550329720515538
sg13
F0.0015593866885566241
ssg14
(dp348
g16
F0.82944133482768034
sg83
F1.0468649455335879
sg13
F0.00086015565147657053
sg11
F0.00086200767696697285
ssg17
(dp349
g16
F0.86849497253054642
sg83
F1.0470310483246388
sg13
F0.0010953490223898552
sg11
F0.0010976674750948115
sssS'-0.3_-0.2'
p350
(dp351
g9
(dp352
g11
F0.0023833726110804505
sg83
F-0.2499637863983451
sg12
F0.92688838984259547
sg13
F0.0023697189313505807
ssg14
(dp353
g16
F0.81653214357252857
sg83
F-0.24982064988856734
sg13
F0.001382264717639277
sg11
F0.0013863015589216238
ssg17
(dp354
g16
F0.88093901328421254
sg83
F-0.2499637863983451
sg13
F0.0016877900830393122
sg11
F0.0017012491612296765
sssS'-0.6_-0.3'
p355
(dp356
g9
(dp357
g11
F0.00074371238205623918
sg83
F-0.44865268203127551
sg12
F0.98724520543559802
sg13
F0.00073692111658810763
ssg14
(dp358
g16
F0.95569391027520556
sg83
F-0.44853570077500882
sg13
F0.00046950948528106935
sg11
F0.00047187395736368403
ssg17
(dp359
g16
F0.96804107532082551
sg83
F-0.44865268203127551
sg13
F0.00054402124903093335
sg11
F0.00055076613832242074
sssS'1.2_1.6'
p360
(dp361
g9
(dp362
g11
F0.0016851439492335857
sg83
F1.3922520208257758
sg12
F0.96764893691944176
sg13
F0.0016819143602993538
ssg14
(dp363
g16
F0.80710386233758569
sg83
F1.3909990396816312
sg13
F0.00086866165007885355
sg11
F0.00087023304082253024
ssg17
(dp364
g16
F0.83408747898493096
sg83
F1.3922520208257758
sg13
F0.0011383970183057586
sg11
F0.0011406616691990595
sssS'0.2_0.3'
p365
(dp366
g9
(dp367
g11
F0.0023848523253168965
sg83
F0.2499909732656391
sg12
F0.94505145074773622
sg13
F0.0023780790653634876
ssg14
(dp368
g16
F0.82678041785686052
sg83
F0.24979592620366303
sg13
F0.0013615054148038584
sg11
F0.0013670119523480444
ssg17
(dp369
g16
F0.87485228153737216
sg83
F0.2499909732656391
sg13
F0.0016645674957220013
sg11
F0.0016678153945328734
sssS'0.6_0.9'
p370
(dp371
g9
(dp372
g11
F0.00093427760573289024
sg83
F0.74832649894026682
sg12
F0.98001049295509202
sg13
F0.00092812853513981957
ssg14
(dp373
g16
F0.93144602174656854
sg83
F0.74787866665325253
sg13
F0.00057206024231175594
sg11
F0.00057439571763021817
ssg17
(dp374
g16
F0.95044494772491284
sg83
F0.74832649894026682
sg13
F0.00068519455951363049
sg11
F0.00069099582271686362
sssS'-0.9_-0.6'
p375
(dp376
g9
(dp377
g11
F0.00093928527901980519
sg83
F-0.74762363515019614
sg12
F0.97731670437977247
sg13
F0.00093374319113850607
ssg14
(dp378
g16
F0.92845516600825162
sg83
F-0.74792679650861404
sg13
F0.00058302421797498422
sg11
F0.00058538978436907248
ssg17
(dp379
g16
F0.95000439657630786
sg83
F-0.74762363515019614
sg13
F0.00068406639040437625
sg11
F0.00068910193693780025
sssS'-1.6_-1.2'
p380
(dp381
g9
(dp382
g11
F0.0016016616371988658
sg83
F-1.3913276087720399
sg12
F0.98806635155530109
sg13
F0.0015979489613504516
ssg14
(dp383
g16
F0.83849140436733649
sg83
F-1.3902936450554129
sg13
F0.00082157230841385209
sg11
F0.00082386086790574764
ssg17
(dp384
g16
F0.84861851944201838
sg83
F-1.3913276087720399
sg13
F0.0010918663848690641
sg11
F0.0010941104603453165
sssS'0.3_0.6'
p385
(dp386
g9
(dp387
g11
F0.00073488752478549678
sg83
F0.44919328816120363
sg12
F0.98190428260498941
sg13
F0.00073079048819902151
ssg14
(dp388
g16
F0.95220918146358668
sg83
F0.44869730356531218
sg13
F0.00048584012502350833
sg11
F0.00048801703134009695
ssg17
(dp389
g16
F0.96975764168924727
sg83
F0.44919328816120363
sg13
F0.00052545460672980384
sg11
F0.00052892435710916663
ssssg150
(dp390
S'4.5_6.5'
p391
(dp392
g9
(dp393
g150
F5.6268862869383982
sg12
F0.9813450322579812
sg13
F0.0018481001999444131
sg11
F0.0018614729692575638
ssg14
(dp394
g150
F5.6240674091351428
sg11
F0.00095932455547588415
sg13
F0.00095501343320507175
sg16
F0.8947949091181564
ssg17
(dp395
g150
F5.6268862869383982
sg11
F0.0014268035142943089
sg13
F0.0014147480960831241
sg16
F0.91180459441397366
sssS'20.5_22.5'
p396
(dp397
g9
(dp398
g150
F21.445844540516237
sg12
F0.97132348008319802
sg13
F0.0017689617290464405
sg11
F0.0017752231388270892
ssg14
(dp399
g150
F21.441572534898633
sg11
F0.001062235471507435
sg13
F0.0010591773775732965
sg16
F0.85591732892918482
ssg17
(dp400
g150
F21.445844540516237
sg11
F0.0011822493124546292
sg13
F0.0011774232900217852
sg16
F0.8811866967901073
sssS'16.5_18.5'
p401
(dp402
g9
(dp403
g150
F17.472139476152883
sg12
F0.97129080981279825
sg13
F0.0011818834487387279
sg11
F0.0011848893484500433
ssg14
(dp404
g150
F17.464827215643908
sg11
F0.00068172900836575834
sg13
F0.00068029348978212968
sg16
F0.86510783220357801
ssg17
(dp405
g150
F17.472139476152883
sg11
F0.00082943048613519713
sg13
F0.00082707015749862943
sg16
F0.89067849037953384
sssS'12.5_14.5'
p406
(dp407
g9
(dp408
g150
F13.500119859202114
sg12
F0.97615506453356315
sg13
F0.00097316438922166151
sg11
F0.00097573207899068583
ssg14
(dp409
g150
F13.493588064888742
sg11
F0.0005419206921815381
sg13
F0.00054076607812141931
sg16
F0.87609699275985597
ssg17
(dp410
g150
F13.500119859202114
sg11
F0.00070470097275608841
sg13
F0.00070262733320062946
sg16
F0.89749776914642343
sssS'22.5_24.5'
p411
(dp412
g9
(dp413
g150
F23.433519463671661
sg12
F0.96873440306217173
sg13
F0.0023442598363783728
sg11
F0.0023560970005941581
ssg14
(dp414
g150
F23.423945791092741
sg11
F0.0014306105746279948
sg13
F0.0014257268508178441
sg16
F0.84961803717504258
ssg17
(dp415
g150
F23.433519463671661
sg11
F0.0015392037900572864
sg13
F0.0015291855361471431
sg16
F0.87703919102015782
sssS'2.5_4.5'
p416
(dp417
g9
(dp418
g150
F3.7149702158673787
sg12
F0.98139971232514056
sg13
F0.0034908102750059178
sg11
F0.0035462903758906802
ssg14
(dp419
g150
F3.7096370827032685
sg11
F0.0018131709894748001
sg13
F0.0017960207605818826
sg16
F0.90012450118847553
ssg17
(dp420
g150
F3.7149702158673787
sg11
F0.0027515182661295573
sg13
F0.0027007630903810266
sg16
F0.9171843947823185
sssS'24.5_26.5'
p421
(dp422
g9
(dp423
g150
F25.413065960664088
sg12
F0.96744078091877017
sg13
F0.0032767292234049199
sg11
F0.0032982739465505393
ssg14
(dp424
g150
F25.411566138421733
sg11
F0.002051616997561248
sg13
F0.0020421044191301909
sg16
F0.84665520340420408
ssg17
(dp425
g150
F25.413065960664088
sg11
F0.00209876473861767
sg13
F0.0020809858549997425
sg16
F0.87514938392419528
sssS'18.5_20.5'
p426
(dp427
g9
(dp428
g150
F19.459355378932297
sg12
F0.96857413251457292
sg13
F0.0014057669363528025
sg11
F0.0014100807667342238
ssg14
(dp429
g150
F19.451113503756542
sg11
F0.00082609075056288487
sg13
F0.00082416363404467846
sg16
F0.85979833209659084
ssg17
(dp430
g150
F19.459355378932297
sg11
F0.00097092749324853827
sg13
F0.00096741253004312057
sg16
F0.887694914858419
sssS'14.5_16.5'
p431
(dp432
g9
(dp433
g150
F15.484372625169792
sg12
F0.97319477568703716
sg13
F0.0010460997247710125
sg11
F0.00104857498165011
ssg14
(dp434
g150
F15.478258190829557
sg11
F0.00059295055744186976
sg13
F0.00059181997795552564
sg16
F0.87039007238921828
ssg17
(dp435
g150
F15.484372625169792
sg11
F0.00074657408617341721
sg13
F0.00074458595288267964
sg16
F0.89436369176433073
sssS'0.5_2.5'
p436
(dp437
g9
(dp438
g150
F1.8715746402399833
sg12
F0.98301889800106934
sg13
F0.010431098912382983
sg11
F0.010983575010092781
ssg14
(dp439
g150
F1.8708588957055214
sg11
F0.005875918344422775
sg13
F0.0057039561174630727
sg16
F0.90366151282610596
ssg17
(dp440
g150
F1.8715746402399833
sg11
F0.00835285635774702
sg13
F0.0078412056833373472
sg16
F0.91927176035340363
sssS'8.5_10.5'
p441
(dp442
g9
(dp443
g150
F9.5376297691674967
sg12
F0.98057132742785591
sg13
F0.0010554556472427807
sg11
F0.0010587706596905013
ssg14
(dp444
g150
F9.5340350433359031
sg11
F0.0005595462415979713
sg13
F0.00055822524518493169
sg16
F0.88717258410641731
ssg17
(dp445
g150
F9.5376297691674967
sg11
F0.00079291765536401596
sg13
F0.00079011856477137553
sg16
F0.90475068900246802
sssS'28.5_30.5'
p446
(dp447
g9
(dp448
g150
F29.404969107579937
sg12
F0.96013319417207466
sg13
F0.0072972576435711908
sg11
F0.0073935118163604317
ssg14
(dp449
g150
F29.389468551925891
sg11
F0.0047180797196821047
sg13
F0.0046708421521986518
sg16
F0.8396460552720324
ssg17
(dp450
g150
F29.404969107579937
sg11
F0.0046045408609098563
sg13
F0.0045287761891224495
sg16
F0.8745099746249908
sssS'10.5_12.5'
p451
(dp452
g9
(dp453
g150
F11.517300891231381
sg12
F0.9778318591166999
sg13
F0.00096647173045511176
sg11
F0.00096935480923866205
ssg14
(dp454
g150
F11.510816773424393
sg11
F0.00052717056930012937
sg13
F0.00052595835717974832
sg16
F0.88237910892113647
ssg17
(dp455
g150
F11.517300891231381
sg11
F0.00071385272098145808
sg13
F0.00071145468293609638
sg16
F0.90238326834453086
sssS'26.5_28.5'
p456
(dp457
g9
(dp458
g150
F27.409198842113831
sg12
F0.9650121789041286
sg13
F0.0048385414375474115
sg11
F0.0048257189206198543
ssg14
(dp459
g150
F27.394004735328938
sg11
F0.0030171091819186937
sg13
F0.0029958615770952018
sg16
F0.84476966486479921
ssg17
(dp460
g150
F27.409198842113831
sg11
F0.0030640285594152944
sg13
F0.0031028113060742285
sg16
F0.87539793106458275
sssS'6.5_8.5'
p461
(dp462
g9
(dp463
g150
F7.5744721563610051
sg12
F0.98194564539887752
sg13
F0.0012618295164904139
sg11
F0.0012663159910945017
ssg14
(dp464
g150
F7.5704306192285618
sg11
F0.00066751982745249334
sg13
F0.00066549865686293128
sg16
F0.89207205250659671
ssg17
(dp465
g150
F7.5744721563610051
sg11
F0.00095417536459825667
sg13
F0.00095054523996667393
sg16
F0.90847396359115873
ssssg227
(dp466
S'90_140'
p467
(dp468
g9
(dp469
g11
F0.0043819093995878314
sg12
F0.97690898602527798
sg227
F104.54036672145638
sg13
F0.0043067580602070684
ssg14
(dp470
g16
F0.92187371454628908
sg13
F0.0030837946034623989
sg227
F105.83046963432143
sg11
F0.0031111924524388074
ssg17
(dp471
g16
F0.94366387015958431
sg13
F0.0027097156359582463
sg227
F104.54036672145638
sg11
F0.0027881876109325534
sssS'140_500'
p472
(dp473
g9
(dp474
g11
F0.018468726270604169
sg12
F0.99000644858004994
sg227
F175.80874460436084
sg13
F0.018268655799890086
ssg14
(dp475
g16
F0.92917405064308789
sg13
F0.015315550028041401
sg227
F200.29225777851462
sg11
F0.015242586454034564
ssg17
(dp476
g16
F0.93855353364191418
sg13
F0.0077864500565093956
sg227
F175.80874460436084
sg11
F0.0083372414700304803
sssS'60_90'
p477
(dp478
g9
(dp479
g11
F0.0011252321476196993
sg12
F0.97415511962180312
sg227
F68.728920035156534
sg13
F0.0011191546977123963
ssg14
(dp480
g16
F0.92469342640843188
sg13
F0.00072894730565456337
sg227
F68.956762783127729
sg11
F0.00073224713327074188
ssg17
(dp481
g16
F0.94922606039110713
sg13
F0.00079327805875869877
sg227
F68.728920035156534
sg11
F0.00079822309974326153
sssS'50_60'
p482
(dp483
g9
(dp484
g11
F0.0006867497610836803
sg12
F0.97616492883741057
sg227
F53.751428455804046
sg13
F0.00068276790302929525
ssg14
(dp485
g16
F0.9287599492239289
sg13
F0.00042638992009660248
sg227
F53.803756491630494
sg11
F0.000427364172635553
ssg17
(dp486
g16
F0.95143753046942603
sg13
F0.00050205434746956336
sg227
F53.751428455804046
sg11
F0.00050632611226226923
sssS'45_50'
p487
(dp488
g9
(dp489
g11
F0.00046071779620432223
sg12
F0.97761487005267456
sg227
F47.097802107020968
sg13
F0.00050414843110047341
ssg14
(dp490
g16
F0.92952091582214158
sg13
F0.0002906369416221181
sg227
F47.104246881320258
sg11
F0.00029121913874617737
ssg17
(dp491
g16
F0.95080480493515651
sg13
F0.00038991523310857596
sg227
F47.097802107020968
sg11
F0.00033472610113410953
sssssS'HighPTID'
p492
(dp493
g5
(dp494
S'90_140'
p495
(dp496
g9
(dp497
g5
F104.17155723084375
sg11
F0.010351343414653349
sg12
F0.98577929020332045
sg13
F0.01024216879493497
ssg14
(dp498
g5
F105.91313102028586
sg16
F0.80886124699797668
sg13
F0.0058982594201153213
sg11
F0.0059183080876472659
ssg17
(dp499
g5
F104.17155723084375
sg16
F0.82052976263190336
sg13
F0.0060728300823001923
sg11
F0.0061800619464298327
sssS'140_500'
p500
(dp501
g9
(dp502
g5
F171.57745460420651
sg11
F0.041693125235266575
sg12
F0.98167651182249782
sg13
F0.042030525187404945
ssg14
(dp503
g5
F203.80132942307858
sg16
F0.77725477934491138
sg13
F0.026557160128108204
sg11
F0.025811016366809762
ssg17
(dp504
g5
F171.57745460420651
sg16
F0.79176263258242341
sg13
F0.020428137124427384
sg11
F0.020963765451888626
sssS'60_90'
p505
(dp506
g9
(dp507
g5
F68.708394526965748
sg11
F0.0027754695796608979
sg12
F0.96885196701921406
sg13
F0.002767169472624472
ssg14
(dp508
g5
F69.004547447456503
sg16
F0.79306307775011331
sg13
F0.0014415503342215328
sg11
F0.0014451673196139343
ssg17
(dp509
g5
F68.708394526965748
sg16
F0.81855959914089271
sg13
F0.0018033335777106546
sg11
F0.0018093444487090539
sssS'50_60'
p510
(dp511
g9
(dp512
g5
F53.738231766746658
sg11
F0.0017048602596900597
sg12
F0.97997410222430392
sg13
F0.001702827131638496
ssg14
(dp513
g5
F53.790753611195548
sg16
F0.80167925245220317
sg13
F0.00085563095524448065
sg11
F0.00085672576680001771
ssg17
(dp514
g5
F53.738231766746658
sg16
F0.81806167186723133
sg13
F0.0011217333526087514
sg11
F0.001123014516826818
sssS'45_50'
p515
(dp516
g9
(dp517
g5
F47.104886535646408
sg11
F0.0011884874447540042
sg12
F0.98765156024281575
sg13
F0.0011844799019029662
ssg14
(dp518
g5
F47.117512206897651
sg16
F0.80320855972916427
sg13
F0.00058532883147967773
sg11
F0.00058611530482512934
ssg17
(dp519
g5
F47.104886535646408
sg16
F0.81325093996884301
sg13
F0.00077461254188437606
sg11
F0.00077815673148562815
ssssg39
(dp520
S'0.9_1.2'
p521
(dp522
g9
(dp523
g39
F1.0469388329864564
sg12
F0.95444510768795299
sg13
F0.0011030214664812675
sg11
F0.0011041376837258414
ssg14
(dp524
g39
F1.0470531116916872
sg11
F0.00061978418520265439
sg13
F0.00061925826776632856
sg16
F0.83024006063000044
ssg17
(dp525
g39
F1.0469388329864564
sg11
F0.00076873402645650992
sg13
F0.00076786779302110406
sg16
F0.8698667465970602
sssS'1.2_2.1'
p526
(dp527
g9
(dp528
g39
F1.5964259458124013
sg12
F0.9833148912906462
sg13
F0.00093026862882361898
sg11
F0.00093127342417896977
ssg14
(dp529
g39
F1.5936684488462849
sg11
F0.00046446591882594112
sg13
F0.00046419023031845811
sg16
F0.80184459176774514
ssg17
(dp530
g39
F1.5964259458124013
sg11
F0.00061100322528578541
sg13
F0.00061016667355088638
sg16
F0.81545047153235628
sssS'0_0.9'
p531
(dp532
g9
(dp533
g39
F0.44048372312897732
sg12
F0.9757987805185645
sg13
F0.00037847775312605647
sg11
F0.00037966800363301777
ssg14
(dp534
g39
F0.43893007324783623
sg11
F0.00024425955971680462
sg13
F0.00024360816108326381
sg16
F0.92800642688787227
ssg17
(dp535
g39
F0.44048372312897732
sg11
F0.00027251009507920428
sg13
F0.00027154809331105608
sg16
F0.95102232695423727
ssssg56
(dp536
S'90_140'
p537
(dp538
g9
(dp539
g11
F0.011799444128692221
sg56
F104.50667723777781
sg12
F0.95028047628527723
sg13
F0.011579598091079822
ssg14
(dp540
g16
F0.82370933127336621
sg56
F105.59976508392215
sg13
F0.0069942388976029363
sg11
F0.0070607353342335803
ssg17
(dp541
g16
F0.86680653957378162
sg56
F104.50667723777781
sg13
F0.0075757924051080257
sg11
F0.007786792935300841
sssS'140_500'
p542
(dp543
g9
(dp544
g11
F0.038599119435823011
sg56
F174.2814649454136
sg12
F0.96378498031909965
sg13
F0.037962422164508604
ssg14
(dp545
g16
F0.84081693448215278
sg56
F197.86295964596044
sg13
F0.028352065925030437
sg11
F0.028087214213993579
ssg17
(dp546
g16
F0.87241132789158704
sg56
F174.2814649454136
sg13
F0.017760994802892768
sg11
F0.019274000534788862
sssS'60_90'
p547
(dp548
g9
(dp549
g11
F0.0032576204106839215
sg56
F68.716862016277574
sg12
F0.9433173493684488
sg13
F0.0032401541047376954
ssg14
(dp550
g16
F0.82174466399742863
sg56
F68.955554690196749
sg13
F0.0018856611831145772
sg11
F0.0018923631144582983
ssg17
(dp551
g16
F0.87112217807462877
sg56
F68.716862016277574
sg13
F0.0022264849237867293
sg11
F0.0022417773687168361
sssS'50_60'
p552
(dp553
g9
(dp554
g11
F0.0020721847411542091
sg56
F53.727814297495698
sg12
F0.952610521541711
sg13
F0.0020617896211256748
ssg14
(dp555
g16
F0.83052801559024236
sg56
F53.781357409649885
sg13
F0.0011464676790075821
sg11
F0.0011492959037470655
ssg17
(dp556
g16
F0.87184426038682683
sg56
F53.727814297495698
sg13
F0.0014533714744967333
sg11
F0.0014632596532139954
sssS'45_50'
p557
(dp558
g9
(dp559
g11
F0.0014081392329466831
sg56
F47.095895043256455
sg12
F0.95682883536176722
sg13
F0.0014020654737715976
ssg14
(dp560
g16
F0.8310834140425849
sg56
F47.107119112207982
sg13
F0.00078819817166878546
sg11
F0.0007899710755359695
ssg17
(dp561
g16
F0.86858107043603128
sg56
F47.095895043256455
sg13
F0.00097021658278275173
sg11
F0.00097587363814100503
ssssg83
(dp562
S'-0.2_0.2'
p563
(dp564
g9
(dp565
g11
F0.00070720915777833639
sg83
F-3.3217311118745984e-05
sg12
F0.98162095795294535
sg13
F0.00070304260698328381
ssg14
(dp566
g16
F0.94467338459248318
sg83
F-0.00017323533814845281
sg13
F0.00046735775466330749
sg11
F0.00046903014606692093
ssg17
(dp567
g16
F0.96236065147028649
sg83
F-3.3217311118745984e-05
sg13
F0.00049838156384450147
sg11
F0.00050240078930024014
sssS'-2.1_-1.6'
p568
(dp569
g9
(dp570
g11
F0.0022445406778167508
sg83
F-1.828919871945113
sg12
F0.97322040536525711
sg13
F0.0022417127681961953
ssg14
(dp571
g16
F0.74256710864777609
sg83
F-1.8286205653599872
sg13
F0.0010504437168323492
sg11
F0.0010517363938547292
ssg17
(dp572
g16
F0.76299993768532315
sg83
F-1.828919871945113
sg13
F0.0013870054751810971
sg11
F0.0013887811241445444
sssS'-1.2_-0.9'
p573
(dp574
g9
(dp575
g11
F0.0015472420667475334
sg83
F-1.0468737665474683
sg12
F0.9551795730649888
sg13
F0.0015440830353754208
ssg14
(dp576
g16
F0.83239634693817099
sg83
F-1.0472495797429802
sg13
F0.00087011528608914226
sg11
F0.00087193224802861388
ssg17
(dp577
g16
F0.87145534767579891
sg83
F-1.0468737665474683
sg13
F0.0010745828568370567
sg11
F0.0010767486812794025
sssS'1.6_2.1'
p578
(dp579
g9
(dp580
g11
F0.0019684150736253314
sg83
F1.8295702807173579
sg12
F1.005881406571592
sg13
F0.001965053266937159
ssg14
(dp581
g16
F0.81366916107252307
sg83
F1.8291681913863163
sg13
F0.00094381892885890561
sg11
F0.00094536867092284173
ssg17
(dp582
g16
F0.80891162293754104
sg83
F1.8295702807173579
sg13
F0.0012715403604916702
sg11
F0.0012737633458444781
sssS'0.9_1.2'
p583
(dp584
g9
(dp585
g11
F0.0015774805640696144
sg83
F1.047004159294906
sg12
F0.95370256374581241
sg13
F0.0015739191471781302
ssg14
(dp586
g16
F0.8280785881707996
sg83
F1.046855580936076
sg13
F0.00088024065187143077
sg11
F0.00088218460407379787
ssg17
(dp587
g16
F0.86827761573628837
sg83
F1.047004159294906
sg13
F0.0010961024517205501
sg11
F0.001098624907647425
sssS'-0.3_-0.2'
p588
(dp589
g9
(dp590
g11
F0.0024012549886849748
sg83
F-0.24994596034212654
sg12
F0.9249863591277655
sg13
F0.0023872029186793376
ssg14
(dp591
g16
F0.81487992587885016
sg83
F-0.24981701186951707
sg13
F0.0014123040209295887
sg11
F0.0014164350427369628
ssg17
(dp592
g16
F0.8809642627024874
sg83
F-0.24994596034212654
sg13
F0.001684631045548071
sg11
F0.0016986345714754324
sssS'-0.6_-0.3'
p593
(dp594
g9
(dp595
g11
F0.00076175029072778023
sg83
F-0.4486311030975238
sg12
F0.9860865735780987
sg13
F0.00075529156046304539
ssg14
(dp596
g16
F0.95456674229455707
sg83
F-0.44851325706730522
sg13
F0.0004992175175862211
sg11
F0.00050149470550294253
ssg17
(dp597
g16
F0.96803543205220888
sg83
F-0.4486311030975238
sg13
F0.00054172895577310151
sg11
F0.00054824211032219463
sssS'1.2_1.6'
p598
(dp599
g9
(dp600
g11
F0.0016928651548795692
sg83
F1.3922325762712211
sg12
F0.96663806064306068
sg13
F0.0016897329832337618
ssg14
(dp601
g16
F0.80623605329539028
sg83
F1.3909767519527507
sg13
F0.00088325082057524287
sg11
F0.00088472425389188683
ssg17
(dp602
g16
F0.8340619784400356
sg83
F1.3922325762712211
sg13
F0.0011361354233326358
sg11
F0.0011383776841782753
sssS'0.2_0.3'
p603
(dp604
g9
(dp605
g11
F0.0024025817122928631
sg83
F0.24999072000208536
sg12
F0.94380786982070231
sg13
F0.0023942434358930568
ssg14
(dp606
g16
F0.82582271215208314
sg83
F0.24976756160610403
sg13
F0.001391593103856374
sg11
F0.0013959582286984314
ssg17
(dp607
g16
F0.87499027986381051
sg83
F0.24999072000208536
sg13
F0.001659197142781935
sg11
F0.0016654285403131185
sssS'0.6_0.9'
p608
(dp609
g9
(dp610
g11
F0.00095141864317731359
sg83
F0.74830400691288357
sg12
F0.97894461134775912
sg13
F0.00094545277269236251
ssg14
(dp611
g16
F0.93043479778621885
sg83
F0.74781009465498249
sg13
F0.00059949789479480178
sg11
F0.00060179816962392435
ssg17
(dp612
g16
F0.95044682508160039
sg83
F0.74830400691288357
sg13
F0.00068379191885828894
sg11
F0.00068946004066592237
sssS'-0.9_-0.6'
p613
(dp614
g9
(dp615
g11
F0.00095591890610685149
sg83
F-0.74762167020534831
sg12
F0.97652969486391017
sg13
F0.00095040937964888019
ssg14
(dp616
g16
F0.92772962688157268
sg83
F-0.74787320877014651
sg13
F0.00060916985013451152
sg11
F0.0006111952119897718
ssg17
(dp617
g16
F0.95002705167185075
sg83
F-0.74762167020534831
sg13
F0.00068247641006516575
sg11
F0.00068783918188957739
sssS'-1.6_-1.2'
p618
(dp619
g9
(dp620
g11
F0.0016117605190561414
sg83
F-1.391319270539165
sg12
F0.98690369975072012
sg13
F0.0016085543084005231
ssg14
(dp621
g16
F0.83737698426255092
sg83
F-1.3902212103376821
sg13
F0.00083872353260277524
sg11
F0.00084032656548789139
ssg17
(dp622
g16
F0.84848905164106914
sg83
F-1.391319270539165
sg13
F0.001091011496065906
sg11
F0.0010932403736473105
sssS'0.3_0.6'
p623
(dp624
g9
(dp625
g11
F0.00075461171593010803
sg83
F0.4492086440972648
sg12
F0.98114990055394857
sg13
F0.00074926187059603762
ssg14
(dp626
g16
F0.95150485975176835
sg83
F0.44866928934563427
sg13
F0.00051393757366054941
sg11
F0.00051629281796794014
ssg17
(dp627
g16
F0.96978541119410711
sg83
F0.4492086440972648
sg13
F0.0005235314376656826
sg11
F0.00052860645365180746
ssssg150
(dp628
S'4.5_6.5'
p629
(dp630
g9
(dp631
g150
F5.6271274667488029
sg12
F0.98057431954657892
sg13
F0.0018728160965854172
sg11
F0.0018875231063569377
ssg14
(dp632
g150
F5.6241463690095248
sg11
F0.00099926007928616148
sg13
F0.00099507074491027867
sg16
F0.89410186548677273
ssg17
(dp633
g150
F5.6271274667488029
sg11
F0.0014290323294591709
sg13
F0.0014152749953263832
sg16
F0.91181448225179773
sssS'20.5_22.5'
p634
(dp635
g9
(dp636
g150
F21.445906307018575
sg12
F0.9705109806525527
sg13
F0.001783590013948217
sg11
F0.0017889264387876505
ssg14
(dp637
g150
F21.441432132880784
sg11
F0.0010818200495163665
sg13
F0.0010788274988900207
sg16
F0.855065021471205
ssg17
(dp638
g150
F21.445906307018575
sg11
F0.0011810573704042081
sg13
F0.0011773060919572844
sg16
F0.88104621021008533
sssS'16.5_18.5'
p639
(dp640
g9
(dp641
g150
F17.472204386632427
sg12
F0.97026472489637894
sg13
F0.0011921358759269592
sg11
F0.0011957884113955304
ssg14
(dp642
g150
F17.464744429151736
sg11
F0.00069792066186747292
sg13
F0.0006963416081201655
sg16
F0.86415653489950039
ssg17
(dp643
g150
F17.472204386632427
sg11
F0.00082912158223262544
sg13
F0.00082609445295238251
sg16
F0.89063995910166627
sssS'12.5_14.5'
p644
(dp645
g9
(dp646
g150
F13.500178879788214
sg12
F0.97530016690163857
sg13
F0.00098337318154315015
sg11
F0.00098583642119620175
ssg14
(dp647
g150
F13.493509653907562
sg11
F0.00055807825605072841
sg13
F0.00055708260242081091
sg16
F0.87532301584258121
ssg17
(dp648
g150
F13.500178879788214
sg11
F0.0007039610278576331
sg13
F0.00070186953921820376
sg16
F0.89749089105903912
sssS'22.5_24.5'
p649
(dp650
g9
(dp651
g150
F23.433468307424786
sg12
F0.96702428175755273
sg13
F0.0023579607045418295
sg11
F0.0023694211423970282
ssg14
(dp652
g150
F23.423938040776758
sg11
F0.0014547920032129816
sg13
F0.0014499984853605142
sg16
F0.84819606652426804
ssg17
(dp653
g150
F23.433468307424786
sg11
F0.0015347837062924818
sg13
F0.0015250831883776258
sg16
F0.8771197192511897
sssS'2.5_4.5'
p654
(dp655
g9
(dp656
g150
F3.7147799445392193
sg12
F0.97978896867273846
sg13
F0.0035365294963438771
sg11
F0.0035905458628011661
ssg14
(dp657
g150
F3.7102631653494234
sg11
F0.0018958871112556752
sg13
F0.0018793308706899544
sg16
F0.8985161088963638
ssg17
(dp658
g150
F3.7147799445392193
sg11
F0.0027476637016366915
sg13
F0.0026976859642812282
sg16
F0.91705064827738347
sssS'24.5_26.5'
p659
(dp660
g9
(dp661
g150
F25.413104267404655
sg12
F0.96607189476882249
sg13
F0.0032980975462161971
sg11
F0.0033187754802934287
ssg14
(dp662
g150
F25.411117681845063
sg11
F0.0020834360748276707
sg13
F0.0020739428223084813
sg16
F0.84540669106409805
ssg17
(dp663
g150
F25.413104267404655
sg11
F0.0020944147509357044
sg13
F0.0020776413671491798
sg16
F0.87509707677232529
sssS'18.5_20.5'
p664
(dp665
g9
(dp666
g150
F19.459360058717568
sg12
F0.96772467534376871
sg13
F0.0014178431341209474
sg11
F0.0014223198721509654
ssg14
(dp667
g150
F19.450956352097961
sg11
F0.00084463968369714686
sg13
F0.00084266692915636681
sg16
F0.8588840956694237
ssg17
(dp668
g150
F19.459360058717568
sg11
F0.0009694321615371053
sg13
F0.00096574242766745994
sg16
F0.88752939503616446
sssS'14.5_16.5'
p669
(dp670
g9
(dp671
g150
F15.484311824636775
sg12
F0.97234296669946851
sg13
F0.001056333447418252
sg11
F0.0010591125946597035
ssg14
(dp672
g150
F15.478350002001129
sg11
F0.00060868361475286043
sg13
F0.00060747996089756363
sg16
F0.86963445555793917
ssg17
(dp673
g150
F15.484311824636775
sg11
F0.0007464299924538557
sg13
F0.00074413170488964175
sg16
F0.89437007860491424
sssS'0.5_2.5'
p674
(dp675
g9
(dp676
g150
F1.8718722948155957
sg12
F0.98420232373707728
sg13
F0.010564410718000074
sg11
F0.011109835806846656
ssg14
(dp677
g150
F1.8697729988052569
sg11
F0.0060916359881975149
sg13
F0.0059203024321378668
sg16
F0.90468653991668291
ssg17
(dp678
g150
F1.8718722948155957
sg11
F0.0083280257890914755
sg13
F0.0078210472958576208
sg16
F0.91920788855845414
sssS'8.5_10.5'
p679
(dp680
g9
(dp681
g150
F9.5376338280715753
sg12
F0.97940918292944634
sg13
F0.0010672635391862143
sg11
F0.0010706847431416068
ssg14
(dp682
g150
F9.5338727496005351
sg11
F0.00057990734549682012
sg13
F0.00057871252258676856
sg16
F0.88615927709566689
ssg17
(dp683
g150
F9.5376338280715753
sg11
F0.00079231262156563283
sg13
F0.00078927826442148788
sg16
F0.90478963495638687
sssS'28.5_30.5'
p684
(dp685
g9
(dp686
g150
F29.404984073671883
sg12
F0.95996672884827539
sg13
F0.0073297381198948316
sg11
F0.0074243853052176068
ssg14
(dp687
g150
F29.389878966930336
sg11
F0.0047701056009350354
sg13
F0.0047235439408279591
sg16
F0.83958325787202703
ssg17
(dp688
g150
F29.404984073671883
sg11
F0.0045893535407148999
sg13
F0.0045147242757786823
sg16
F0.87459620489068512
sssS'10.5_12.5'
p689
(dp690
g9
(dp691
g150
F11.517171722706744
sg12
F0.97683827922811373
sg13
F0.00097922650949634651
sg11
F0.00098193081365248024
ssg14
(dp692
g150
F11.510761467120734
sg11
F0.0005446436791905567
sg13
F0.00054356842574121824
sg16
F0.8814541036544602
ssg17
(dp693
g150
F11.517171722706744
sg11
F0.00071546096562156059
sg13
F0.00071315148312700507
sg16
F0.90235417919020844
sssS'26.5_28.5'
p694
(dp695
g9
(dp696
g150
F27.409118697239816
sg12
F0.96276064878912226
sg13
F0.0048574590452675048
sg11
F0.0048559367439887386
ssg14
(dp697
g150
F27.394065526478467
sg11
F0.0030623375054853216
sg13
F0.0030414075502295259
sg16
F0.84283151847442461
ssg17
(dp698
g150
F27.409118697239816
sg11
F0.0030625120476252001
sg13
F0.0030869128466483198
sg16
F0.87543203966060079
sssS'6.5_8.5'
p699
(dp700
g9
(dp701
g150
F7.5746276063784066
sg12
F0.98110937462455128
sg13
F0.0012787541696718412
sg11
F0.0012835788909465954
ssg14
(dp702
g150
F7.5704671136947796
sg11
F0.000692797869991802
sg13
F0.00069086460043444741
sg16
F0.89123965304977371
ssg17
(dp703
g150
F7.5746276063784066
sg11
F0.00095592471409099438
sg13
F0.00095182612687197377
sg16
F0.90839989516034469
ssssg227
(dp704
S'90_140'
p705
(dp706
g9
(dp707
g11
F0.0044701202397104331
sg12
F0.9764963971870203
sg227
F104.53442810749762
sg13
F0.004397181943857984
ssg14
(dp708
g16
F0.92163971366057418
sg13
F0.0032029335165358439
sg227
F105.79688651441768
sg11
F0.0032298225053203587
ssg17
(dp709
g16
F0.9438229534850604
sg13
F0.0027026613979170737
sg227
F104.53442810749762
sg11
F0.0027797823947984723
sssS'140_500'
p710
(dp711
g9
(dp712
g11
F0.018717492850397827
sg12
F0.99205573178316298
sg227
F175.76285240567563
sg13
F0.018537752883416601
ssg14
(dp713
g16
F0.93123984460787623
sg13
F0.015600952512943599
sg227
F199.70502404712249
sg11
F0.015510966661471426
ssg17
(dp714
g16
F0.93869710619384894
sg13
F0.0077699520611391902
sg227
F175.76285240567563
sg11
F0.0083193812985137665
sssS'60_90'
p715
(dp716
g9
(dp717
g11
F0.0011598572774224783
sg12
F0.97087960671942442
sg227
F68.72912630896721
sg13
F0.0011548125992389613
ssg14
(dp718
g16
F0.92157880633546907
sg13
F0.00077878553095764736
sg227
F69.000200215276038
sg11
F0.00078113252572746474
ssg17
(dp719
g16
F0.94922048002373705
sg13
F0.00079455571990508624
sg227
F68.72912630896721
sg11
F0.00079912223370411572
sssS'50_60'
p720
(dp721
g9
(dp722
g11
F0.00070441393639598634
sg12
F0.97472899799471513
sg227
F53.751068544114823
sg13
F0.00070166688215143479
ssg14
(dp723
g16
F0.92743676133391362
sg13
F0.00045485385778160146
sg227
F53.815328419774254
sg11
F0.00045538437250587752
ssg17
(dp724
g16
F0.95148165617510649
sg13
F0.00050137114499589086
sg227
F53.751068544114823
sg11
F0.00050452482429002492
sssS'45_50'
p725
(dp726
g9
(dp727
g11
F0.00048597203120522866
sg12
F0.97723233855149771
sg227
F47.097540960594728
sg13
F0.00048431301584707571
ssg14
(dp728
g16
F0.92919843767576749
sg13
F0.00030073430335217355
sg227
F47.106900459172785
sg11
F0.00030141357387320362
ssg17
(dp729
g16
F0.9508470002671745
sg13
F0.00035687454794300393
sg227
F47.097540960594728
sg11
F0.00035840634357780008
ssssssS'IsoMu24'
p730
(dp731
S'TightID_IsodB'
p732
(dp733
g5
(dp734
S'25_30'
p735
(dp736
g9
(dp737
g5
F27.705955195620472
sg11
F0.0017823280400050144
sg12
F1.0051991254438037
sg13
F0.0017782159910835391
ssg14
(dp738
g5
F27.698281861092511
sg16
F0.79374186711322625
sg13
F0.00077954445660775569
sg11
F0.00078049186065368961
ssg17
(dp739
g5
F27.705955195620472
sg16
F0.78963644816422085
sg13
F0.0011618341550551762
sg11
F0.001165088322305208
sssS'140_500'
p740
(dp741
g9
(dp742
g5
F170.73449705514739
sg11
F0.027846431972317096
sg12
F0.99416866829048334
sg13
F0.027302993818728562
ssg14
(dp743
g5
F168.1525442137135
sg16
F0.82683947801809832
sg13
F0.011308756263186295
sg11
F0.011707073177917663
ssg17
(dp744
g5
F170.73449705514739
sg16
F0.83168933440628856
sg13
F0.019806805934334412
sg11
F0.020099967276010291
sssS'30_35'
p745
(dp746
g9
(dp747
g5
F32.630044552701698
sg11
F0.0013715807241176374
sg12
F1.0013781590159485
sg13
F0.0013693380303715827
ssg14
(dp748
g5
F32.636403834896512
sg16
F0.80848509506495958
sg13
F0.00062230595600791278
sg11
F0.00062310196595774102
ssg17
(dp749
g5
F32.630044552701698
sg16
F0.80737240750233219
sg13
F0.00091253169868429917
sg11
F0.00091417799108474158
sssS'60_90'
p750
(dp751
g9
(dp752
g5
F68.702092540415421
sg11
F0.0025430635002634187
sg12
F0.98829374192885855
sg13
F0.0025335294460190152
ssg14
(dp753
g5
F68.629114537732164
sg16
F0.82904551798424264
sg13
F0.0012258295642393971
sg11
F0.0012288819777911159
ssg17
(dp754
g5
F68.702092540415421
sg16
F0.83886549394331866
sg13
F0.0017567100282409724
sg11
F0.0017644346471241503
sssS'50_60'
p755
(dp756
g9
(dp757
g5
F53.740270521575724
sg11
F0.0015867039726075091
sg12
F0.99054467301217797
sg13
F0.001581754019526234
ssg14
(dp758
g5
F53.75526471777529
sg16
F0.8288286854835083
sg13
F0.00076408064975267418
sg11
F0.00076494547469196613
ssg17
(dp759
g5
F53.740270521575724
sg16
F0.83674033899258426
sg13
F0.0010910002949207547
sg11
F0.0010955022975369145
sssS'90_140'
p760
(dp761
g9
(dp762
g5
F104.05685928928493
sg11
F0.0081573855229078087
sg12
F0.98187598993908232
sg13
F0.0080605050273570671
ssg14
(dp763
g5
F104.25616320155041
sg16
F0.82901945107830488
sg13
F0.0040657596366516146
sg11
F0.0041029932811339157
ssg17
(dp764
g5
F104.05685928928493
sg16
F0.84432195060573689
sg13
F0.0055584538777953621
sg11
F0.0056340687750593994
sssS'40_50'
p765
(dp766
g9
(dp767
g5
F44.34821082420018
sg11
F0.00071551911935136946
sg12
F0.99425410141043047
sg13
F0.00071581456250963582
ssg14
(dp768
g5
F44.338139026050378
sg16
F0.82445240820621812
sg13
F0.00033912400006564638
sg11
F0.00033879478905920351
ssg17
(dp769
g5
F44.34821082420018
sg16
F0.82921700502584317
sg13
F0.00048996520900932751
sg11
F0.00048989542737746443
sssS'35_40'
p770
(dp771
g9
(dp772
g5
F37.613946100888114
sg11
F0.0011118453938292981
sg12
F0.99616640424792002
sg13
F0.0011101094832906267
ssg14
(dp773
g5
F37.606961140747615
sg16
F0.81418056279946283
sg13
F0.00051411825860703481
sg11
F0.00051477939588037138
ssg17
(dp774
g5
F37.613946100888114
sg16
F0.81731381356325516
sg13
F0.00075046636917388448
sg11
F0.0007517384599005166
ssssg39
(dp775
S'0.9_1.2'
p776
(dp777
g9
(dp778
g39
F1.0473176926256544
sg12
F0.96562132122879885
sg13
F0.00065631998695420406
sg11
F0.00065756987058646359
ssg14
(dp779
g39
F1.0473669295477683
sg11
F0.00034809784746196048
sg13
F0.00034771093638976915
sg16
F0.83970849666378777
ssg17
(dp780
g39
F1.0473176926256544
sg11
F0.00046981723844457927
sg13
F0.00046870577713661909
sg16
F0.86960434510209339
sssS'1.2_2.1'
p781
(dp782
g9
(dp783
g39
F1.6151118444878356
sg12
F0.99623586265724517
sg13
F0.00052065484235297693
sg11
F0.00052117727124020006
ssg14
(dp784
g39
F1.6121385611143733
sg11
F0.00024217561424330359
sg13
F0.00024205196993207069
sg16
F0.81786933547885243
ssg17
(dp785
g39
F1.6151118444878356
sg11
F0.00035406468255156682
sg13
F0.0003536276493542445
sg16
F0.82095953994003157
sssS'0_0.9'
p786
(dp787
g9
(dp788
g39
F0.44087010244165536
sg12
F0.98367756544250151
sg13
F0.00020767734016560101
sg11
F0.00020796309424686243
ssg14
(dp789
g39
F0.4419069942952602
sg11
F0.00012311122689751772
sg13
F0.00012298443561582211
sg16
F0.93768046689070794
ssg17
(dp790
g39
F0.44087010244165536
sg11
F0.00015795581417641795
sg13
F0.00015770463437452228
sg16
F0.95323965883973161
ssssg56
(dp791
S'25_30'
p792
(dp793
g9
(dp794
g11
F0.002591557665753458
sg56
F27.755085504117098
sg12
F0.96838127559931908
sg13
F0.0025787575866262039
ssg14
(dp795
g16
F0.82194544122367552
sg56
F27.751889478949067
sg13
F0.0013039477018938418
sg11
F0.0013090479954735584
ssg17
(dp796
g16
F0.84878287295980992
sg56
F27.755085504117098
sg13
F0.0018154079701705886
sg11
F0.0018254691006806723
sssS'140_500'
p797
(dp798
g9
(dp799
g11
F0.02743437935083038
sg56
F174.45408481156858
sg12
F0.97127896196175556
sg13
F0.025376053351416492
ssg14
(dp800
g16
F0.86413759128998668
sg56
F171.02307488508285
sg13
F0.015269347301468728
sg11
F0.016122725659541096
ssg17
(dp801
g16
F0.88969042379403707
sg56
F174.45408481156858
sg13
F0.01712186169392001
sg11
F0.018867091511550003
sssS'30_35'
p802
(dp803
g9
(dp804
g11
F0.001901806697793774
sg56
F32.686478674633101
sg12
F0.96538054889610103
sg13
F0.0018925540568696933
ssg14
(dp805
g16
F0.82914484921229503
sg56
F32.678887519886544
sg13
F0.00097776324221852126
sg11
F0.00098229607003779708
ssg17
(dp806
g16
F0.85887876046436862
sg56
F32.686478674633101
sg13
F0.0013450830109056149
sg11
F0.0013518520345241827
sssS'60_90'
p807
(dp808
g9
(dp809
g11
F0.0030421868554624618
sg56
F68.72628644673695
sg12
F0.95952416834753307
sg13
F0.0030221102906236239
ssg14
(dp810
g16
F0.84357616695526649
sg56
F68.705285238787667
sg13
F0.0016473739496371941
sg11
F0.0016536505073870831
ssg17
(dp811
g16
F0.87916093703825182
sg56
F68.72628644673695
sg13
F0.0021724933679449282
sg11
F0.0021907610172522667
sssS'50_60'
p812
(dp813
g9
(dp814
g11
F0.0019327403824020816
sg56
F53.733448441803397
sg12
F0.96273957552501865
sg13
F0.0019297478815599588
ssg14
(dp815
g16
F0.84718518125856201
sg56
F53.759612006848243
sg13
F0.0010337855331709819
sg11
F0.0010357567140461829
ssg17
(dp816
g16
F0.87997336226316403
sg56
F53.733448441803397
sg13
F0.0013993299901930675
sg11
F0.0014012065047039721
sssS'90_140'
p817
(dp818
g9
(dp819
g11
F0.010200424767055799
sg56
F104.51898738480921
sg12
F0.96444182461126438
sg13
F0.010055105850685283
ssg14
(dp820
g16
F0.84665919222547592
sg56
F104.50536913350477
sg13
F0.0054802608877182364
sg11
F0.0055789765024975143
ssg17
(dp821
g16
F0.87787481900915809
sg56
F104.51898738480921
sg13
F0.0071750195291853123
sg11
F0.0072626452059437133
sssS'40_50'
p822
(dp823
g9
(dp824
g11
F0.00053048670702444901
sg56
F44.355027480489127
sg12
F0.96667958160832501
sg13
F0.00052977221668667205
ssg14
(dp825
g16
F0.8446275610931202
sg56
F44.352429207734467
sg13
F0.00046265180835233164
sg11
F0.00046327640031021351
ssg17
(dp826
g16
F0.87374097597868028
sg56
F44.355027480489127
sg13
F1.5154813859663552e-05
sg11
F1.5154813859663552e-05
sssS'35_40'
p827
(dp828
g9
(dp829
g11
F0.001442964213476463
sg56
F37.691073306871196
sg12
F0.96696514151670487
sg13
F0.0014385864945490831
ssg14
(dp830
g16
F0.83613679390494133
sg56
F37.681183600885269
sg13
F0.00074921390039779884
sg11
F0.00075080864902723229
ssg17
(dp831
g16
F0.86470210559342753
sg56
F37.691073306871196
sg13
F0.0010269441259473256
sg11
F0.0010306034078939811
ssssg83
(dp832
S'-0.2_0.2'
p833
(dp834
g9
(dp835
g11
F0.00040722817498208398
sg83
F1.2832757666681751e-05
sg12
F0.98706484092143387
sg13
F0.00040600243859729898
ssg14
(dp836
g16
F0.9453111333323243
sg83
F0.00021138129546112458
sg13
F0.00023967250472432559
sg11
F0.00024017331873921424
ssg17
(dp837
g16
F0.95769912384871081
sg83
F1.2832757666681751e-05
sg13
F0.00031018949498384882
sg11
F0.0003113025009738619
sssS'-2.1_-1.6'
p838
(dp839
g9
(dp840
g11
F0.0011846323398076531
sg83
F-1.8426748357369449
sg12
F0.99684061234700949
sg13
F0.0011825478939752302
ssg14
(dp841
g16
F0.7816072212250651
sg83
F-1.8430989520600394
sg13
F0.0005278233722493112
sg11
F0.00052853281963227336
ssg17
(dp842
g16
F0.78408444794881649
sg83
F-1.8426748357369449
sg13
F0.00076473796350938418
sg11
F0.00076623935578856977
sssS'-1.2_-0.9'
p843
(dp844
g9
(dp845
g11
F0.00092497153310988644
sg83
F-1.0474409900540866
sg12
F0.96525663228758929
sg13
F0.00092264082602229599
ssg14
(dp846
g16
F0.84067545560000578
sg83
F-1.0477138960113577
sg13
F0.0004897597290029088
sg11
F0.00049093641743791364
ssg17
(dp847
g16
F0.87093465870072806
sg83
F-1.0474409900540866
sg13
F0.00065998901151959435
sg11
F0.00066170441285426287
sssS'1.6_2.1'
p848
(dp849
g9
(dp850
g11
F0.0010552532955270804
sg83
F1.8406297819980106
sg12
F1.0224499002039784
sg13
F0.0010530246915060263
ssg14
(dp851
g16
F0.83720032722887594
sg83
F1.8405552333373847
sg13
F0.00046370493604451252
sg11
F0.00046451979592103859
ssg17
(dp852
g16
F0.8188179460547208
sg83
F1.8406297819980106
sg13
F0.00071096921835986382
sg11
F0.00071257776402340665
sssS'0.9_1.2'
p853
(dp854
g9
(dp855
g11
F0.00093502715640984065
sg83
F1.0471942277645532
sg12
F0.9659884894030798
sg13
F0.00093300966062080681
ssg14
(dp856
g16
F0.83874006083202191
sg83
F1.0470188980872455
sg13
F0.00049322838174600445
sg11
F0.00049416995747344778
ssg17
(dp857
g16
F0.86827127862601194
sg83
F1.0471942277645532
sg13
F0.00066527518363149803
sg11
F0.00066681300425968021
sssS'-0.3_-0.2'
p858
(dp859
g9
(dp860
g11
F0.0011543371620956386
sg83
F-0.24979887673925244
sg12
F0.94984946619186017
sg13
F0.001149871758423088
ssg14
(dp861
g16
F0.8795903354254988
sg83
F-0.24986600594301353
sg13
F0.00071807133553280144
sg11
F0.00072019575846798782
ssg17
(dp862
g16
F0.92603129941416451
sg83
F-0.24979887673925244
sg13
F0.00082777629831601968
sg11
F0.00083162889456764072
sssS'-0.6_-0.3'
p863
(dp864
g9
(dp865
g11
F0.00045127703849530431
sg83
F-0.44877609396284068
sg12
F0.98893578442705243
sg13
F0.00044958076194974282
ssg14
(dp866
g16
F0.95096236665059375
sg83
F-0.44868676778125804
sg13
F0.00026480405262898927
sg11
F0.00026559734116673198
ssg17
(dp867
g16
F0.96160173554801753
sg83
F-0.44877609396284068
sg13
F0.00034555026289003713
sg11
F0.00034701520632047882
sssS'1.2_1.6'
p868
(dp869
g9
(dp870
g11
F0.00098376860885619364
sg83
F1.3936661851648362
sg12
F0.97146461622620506
sg13
F0.00098115268583518021
ssg14
(dp871
g16
F0.81227267452321916
sg83
F1.3928627778110476
sg13
F0.00048581721478481389
sg11
F0.00048664639911623488
ssg17
(dp872
g16
F0.83613202267583353
sg83
F1.3936661851648362
sg13
F0.0006804726035143959
sg11
F0.00068263919712417231
sssS'0.2_0.3'
p873
(dp874
g9
(dp875
g11
F0.0011187353958346717
sg83
F0.25009429943362355
sg12
F0.96438807464694765
sg13
F0.0011132636461904947
ssg14
(dp876
g16
F0.89807210094954015
sg83
F0.24997761175890418
sg13
F0.00067274686803571167
sg11
F0.00067534325885845606
ssg17
(dp877
g16
F0.93123517861656979
sg83
F0.25009429943362355
sg13
F0.00081791116154818699
sg11
F0.00082255875574567257
sssS'0.6_0.9'
p878
(dp879
g9
(dp880
g11
F0.00054740539617734629
sg83
F0.74750435837346774
sg12
F0.98653113778313295
sg13
F0.00054463477647169055
ssg14
(dp881
g16
F0.93570174134110851
sg83
F0.7469509832220218
sg13
F0.00031264155864141937
sg11
F0.00031355347606787755
ssg17
(dp882
g16
F0.9484766425556066
sg83
F0.74750435837346774
sg13
F0.00041683601890330093
sg11
F0.0004194785312496391
sssS'-0.9_-0.6'
p883
(dp884
g9
(dp885
g11
F0.0005410902390464256
sg83
F-0.7472202651624148
sg12
F0.98328353621500819
sg13
F0.00053834807723427585
ssg14
(dp886
g16
F0.93385862222240368
sg83
F-0.7470271324472566
sg13
F0.00031689845487320467
sg11
F0.00031802678783628894
ssg17
(dp887
g16
F0.94973483011537263
sg83
F-0.7472202651624148
sg13
F0.00040805775422404067
sg11
F0.00041052602075352529
sssS'-1.6_-1.2'
p888
(dp889
g9
(dp890
g11
F0.00095471670018864208
sg83
F-1.3932585407942433
sg12
F0.99392750788290274
sg13
F0.00095191288700824774
ssg14
(dp891
g16
F0.83848699035103924
sg83
F-1.3929159800765847
sg13
F0.00045612253607205512
sg11
F0.00045676477218530465
ssg17
(dp892
g16
F0.84360980423717546
sg83
F-1.3932585407942433
sg13
F0.00066496945773599945
sg11
F0.00066741444685518845
sssS'0.3_0.6'
p893
(dp894
g9
(dp895
g11
F0.00045176942881733329
sg83
F0.44877417517318408
sg12
F0.98709698465234241
sg13
F0.00045001317817744234
ssg14
(dp896
g16
F0.94938442370636456
sg83
F0.44907410365354017
sg13
F0.00026785570057138406
sg11
F0.00026860584337653326
ssg17
(dp897
g16
F0.96179447254692985
sg83
F0.44877417517318408
sg13
F0.00034442446393555238
sg11
F0.00034600404966877345
ssssg150
(dp898
S'4.5_6.5'
p899
(dp900
g9
(dp901
g150
F5.6284660619058053
sg12
F0.98805904985218151
sg13
F0.00100101407493208
sg11
F0.0010059973814601571
ssg14
(dp902
g150
F5.6215749191236419
sg11
F0.00051061872450534353
sg13
F0.00050852038267232627
sg16
F0.91065887272423507
ssg17
(dp903
g150
F5.6284660619058053
sg11
F0.00078327390483904941
sg13
F0.00077910586431211471
sg16
F0.92166442163600859
sssS'20.5_22.5'
p904
(dp905
g9
(dp906
g150
F21.445225384857487
sg12
F0.98077763810299523
sg13
F0.0010728597446162612
sg11
F0.0010765242799751699
ssg14
(dp907
g150
F21.437119495481721
sg11
F0.00059042180951170403
sg13
F0.00058899855100810652
sg16
F0.85274898384944242
ssg17
(dp908
g150
F21.445225384857487
sg11
F0.00074052141710112237
sg13
F0.00073751406598881694
sg16
F0.86946209897160398
sssS'16.5_18.5'
p909
(dp910
g9
(dp911
g150
F17.470904768276089
sg12
F0.9799023589583552
sg13
F0.00069073545022841482
sg11
F0.00069280236593459888
ssg14
(dp912
g150
F17.463407625433987
sg11
F0.00037690832561543914
sg13
F0.00037609797010835849
sg16
F0.86960719886651505
ssg17
(dp913
g150
F17.470904768276089
sg11
F0.00049570597519178717
sg13
F0.00049397817692649381
sg16
F0.88744270377195045
sssS'12.5_14.5'
p914
(dp915
g9
(dp916
g150
F13.501089350992077
sg12
F0.98178877956919874
sg13
F0.00055621849658292575
sg11
F0.0005577966095788962
ssg14
(dp917
g150
F13.492042526347303
sg11
F0.00029619224070443081
sg13
F0.00029557969323952175
sg16
F0.88596380526666929
ssg17
(dp918
g150
F13.501089350992077
sg11
F0.00041453282254011388
sg13
F0.00041319282208773897
sg16
F0.90239756626208678
sssS'22.5_24.5'
p919
(dp920
g9
(dp921
g150
F23.431489440755954
sg12
F0.9811895569176583
sg13
F0.0014555173618203822
sg11
F0.0014610713694073164
ssg14
(dp922
g150
F23.424193471375595
sg11
F0.00080331405960310182
sg13
F0.00080111729016653333
sg16
F0.84327877962864906
ssg17
(dp923
g150
F23.431489440755954
sg11
F0.00098364345269408727
sg13
F0.00097917675884035644
sg16
F0.8594453270352298
sssS'2.5_4.5'
p924
(dp925
g9
(dp926
g150
F3.7133698011773593
sg12
F0.9876069875053477
sg13
F0.0018901081256935701
sg11
F0.0019098558486482188
ssg14
(dp927
g150
F3.7106990209598703
sg11
F0.00096398018835554082
sg13
F0.00095718157519181593
sg16
F0.91490281705624155
ssg17
(dp928
g150
F3.7133698011773593
sg11
F0.0015022000845568806
sg13
F0.0014845777078769317
sg16
F0.92638349933838182
sssS'24.5_26.5'
p929
(dp930
g9
(dp931
g150
F25.418306223843825
sg12
F0.98055427519265792
sg13
F0.0020793084053113814
sg11
F0.0020870611109045493
ssg14
(dp932
g150
F25.410533720894275
sg11
F0.0011471261781808872
sg13
F0.0011428329851839337
sg16
F0.8309803428048359
ssg17
(dp933
g150
F25.418306223843825
sg11
F0.0013729531351376015
sg13
F0.0013678809150540158
sg16
F0.84745981311597063
sssS'18.5_20.5'
p934
(dp935
g9
(dp936
g150
F19.458514884881911
sg12
F0.97840955964679244
sg13
F0.00083546683701402622
sg11
F0.00083772594238678026
ssg14
(dp937
g150
F19.450550624850177
sg11
F0.00045946423541944759
sg13
F0.00045825821454914837
sg16
F0.86056408394413353
ssg17
(dp938
g150
F19.458514884881911
sg11
F0.00058873540515407886
sg13
F0.00058712083297601597
sg16
F0.87955404304798357
sssS'14.5_16.5'
p939
(dp940
g9
(dp941
g150
F15.484138152148086
sg12
F0.98005923147322305
sg13
F0.00060262636556796076
sg11
F0.00060404977793218552
ssg14
(dp942
g150
F15.476793512164692
sg11
F0.00032573738785844923
sg13
F0.00032497426349988837
sg16
F0.87785193123218641
ssg17
(dp943
g150
F15.484138152148086
sg11
F0.00044080387614598961
sg13
F0.0004397617137836775
sg16
F0.8957131396156548
sssS'0.5_2.5'
p944
(dp945
g9
(dp946
g150
F1.8626317938949197
sg12
F0.97482008201278403
sg13
F0.0053783922557518564
sg11
F0.0055483831710032346
ssg14
(dp947
g150
F1.8669367088607596
sg11
F0.0031317824837682764
sg13
F0.0030703209056443213
sg16
F0.91616793121183382
ssg17
(dp948
g150
F1.8626317938949197
sg11
F0.0042770480391293277
sg13
F0.0041191946043227573
sg16
F0.93983284517503296
sssS'8.5_10.5'
p949
(dp950
g9
(dp951
g150
F9.5381518237828224
sg12
F0.98433725854171605
sg13
F0.0005818550695148735
sg11
F0.00058404156059237513
ssg14
(dp952
g150
F9.5333478862331233
sg11
F0.00030336114634981387
sg13
F0.00030237334342770109
sg16
F0.89971287680729484
ssg17
(dp953
g150
F9.5381518237828224
sg11
F0.00044624737519294029
sg13
F0.00044447294340884053
sg16
F0.91402907794042942
sssS'28.5_30.5'
p954
(dp955
g9
(dp956
g150
F29.398330734104729
sg12
F0.98226857284934788
sg13
F0.0050150401975470396
sg11
F0.0050625032399535079
ssg14
(dp957
g150
F29.389403090438467
sg11
F0.002732352674309717
sg13
F0.0027120245468566524
sg16
F0.80739480662586682
ssg17
(dp958
g150
F29.398330734104729
sg11
F0.0031951296037952058
sg13
F0.0031604783538539513
sg16
F0.82196949891595306
sssS'10.5_12.5'
p959
(dp960
g9
(dp961
g150
F11.516417609717102
sg12
F0.98290239674274837
sg13
F0.00054447298971594576
sg11
F0.0005457885444166312
ssg14
(dp962
g150
F11.50883311775261
sg11
F0.00028731402858972314
sg13
F0.00028673977976116205
sg16
F0.8933580102216947
ssg17
(dp963
g150
F11.516417609717102
sg11
F0.00041142558072157606
sg13
F0.00041034836248466966
sg16
F0.90889798741177574
sssS'26.5_28.5'
p964
(dp965
g9
(dp966
g150
F27.408324352989972
sg12
F0.9823228128018936
sg13
F0.003123768568097748
sg11
F0.0031391164865208869
ssg14
(dp967
g150
F27.39158667419537
sg11
F0.0017191098373479288
sg13
F0.0017123727653603406
sg16
F0.82146851382922115
ssg17
(dp968
g150
F27.408324352989972
sg11
F0.0020195745197861101
sg13
F0.0020082275881374853
sg16
F0.83625108072786647
sssS'6.5_8.5'
p969
(dp970
g9
(dp971
g150
F7.5745532616982887
sg12
F0.98572179259098003
sg13
F0.00069617703894779928
sg11
F0.0006990752449180411
ssg14
(dp972
g150
F7.5692157569579974
sg11
F0.00035947910015090775
sg13
F0.00035831950093109327
sg16
F0.90566598891448336
ssg17
(dp973
g150
F7.5745532616982887
sg11
F0.00053999152193865264
sg13
F0.00053752610018833297
sg16
F0.91878458579467015
ssssg227
(dp974
S'25_30'
p975
(dp976
g9
(dp977
g11
F0.0010075240449770098
sg12
F0.98372524384334614
sg227
F27.837963829313658
sg13
F0.0010031080858819209
ssg14
(dp978
g16
F0.91820621634353716
sg13
F0.00056495672179433592
sg227
F27.834995486240917
sg11
F0.00056683536835262977
ssg17
(dp979
g16
F0.93339702532809798
sg13
F0.00075899701248552463
sg227
F27.837963829313658
sg11
F0.00076280593916992767
sssS'140_500'
p980
(dp981
g9
(dp982
g11
F0.0087466829592699382
sg12
F0.98041749810533507
sg227
F174.76713166318004
sg13
F0.0081332613489531018
ssg14
(dp983
g16
F0.93843876780571422
sg13
F0.0050666130039955107
sg227
F170.923905126562
sg11
F0.0053491416097449064
ssg17
(dp984
g16
F0.95718280183621252
sg13
F0.0060287203476393301
sg227
F174.76713166318004
sg11
F0.0065691362155674664
sssS'30_35'
p985
(dp986
g9
(dp987
g11
F0.0006375087089531662
sg12
F0.98406344315477012
sg227
F32.749910446162517
sg13
F0.00063535205129759502
ssg14
(dp988
g16
F0.92936382610783175
sg13
F0.00036451752750855503
sg227
F32.746641896839911
sg11
F0.00036538697765936491
ssg17
(dp989
g16
F0.94441454214417409
sg13
F0.00048434211196648536
sg227
F32.749910446162517
sg11
F0.0004862718563105615
sssS'60_90'
p990
(dp991
g9
(dp992
g11
F0.00093371028168127751
sg12
F0.98467201842489449
sg227
F68.736048944738855
sg13
F0.00092756084334772685
ssg14
(dp993
g16
F0.94437317913039642
sg13
F0.00055534840916684472
sg227
F68.730391710877825
sg11
F0.00055764428023759923
ssg17
(dp994
g16
F0.95907384536125939
sg13
F0.0007057823464877021
sg227
F68.736048944738855
sg11
F0.00071158391170965895
sssS'50_60'
p995
(dp996
g9
(dp997
g11
F0.00060257389558970441
sg12
F0.98429177039157478
sg227
F53.75578899867358
sg13
F0.00060283573195383719
ssg14
(dp998
g16
F0.94402302093113344
sg13
F0.00035464571076777938
sg227
F53.789342847075453
sg11
F0.00035450976318700137
ssg17
(dp999
g16
F0.95908860495255233
sg13
F0.0004639165894083157
sg227
F53.75578899867358
sg11
F0.00046370081704151024
sssS'90_140'
p1000
(dp1001
g9
(dp1002
g11
F0.0032070455991960061
sg12
F0.98091711658069591
sg227
F104.53990109043714
sg13
F0.0031287565107191648
ssg14
(dp1003
g16
F0.93898276097766487
sg13
F0.0018674369359216896
sg227
F104.5256845587222
sg11
F0.0018932808300815968
ssg17
(dp1004
g16
F0.95724984823467363
sg13
F0.0023870719016186688
sg227
F104.53990109043714
sg11
F0.0024636313491742516
sssS'40_50'
p1005
(dp1006
g9
(dp1007
g11
F0.00027066643447339175
sg12
F0.98345252700570363
sg227
F44.342917008694222
sg13
F0.00029736820137356149
ssg14
(dp1008
g16
F0.94070359339739529
sg13
F0.00020041245410647231
sg227
F44.340513019802621
sg11
F0.00016124224017327959
ssg17
(dp1009
g16
F0.95653177714793713
sg13
F0.00020524316783116539
sg227
F44.342917008694222
sg11
F0.00020596859995901333
sssS'35_40'
p1010
(dp1011
g9
(dp1012
g11
F0.00044558990769502421
sg12
F0.98391658181685537
sg227
F37.673364126749753
sg13
F0.00044422220647608669
ssg14
(dp1013
g16
F0.9355237458999156
sg13
F0.00026020574031778375
sg227
F37.670601736313046
sg11
F0.00026075425515741151
ssg17
(dp1014
g16
F0.95081611915963471
sg13
F0.00033814326314450581
sg227
F37.673364126749753
sg11
F0.00033938500977268927
sssssg3
(dp1015
g5
(dp1016
S'25_30'
p1017
(dp1018
g9
(dp1019
g5
F27.688461979975461
sg11
F0.0018484938512519991
sg12
F1.0060737923392162
sg13
F0.0018456562618354127
ssg14
(dp1020
g5
F27.67961702728719
sg16
F0.7721238321276982
sg13
F0.0007901182431039323
sg11
F0.00079079960860960229
ssg17
(dp1021
g5
F27.688461979975461
sg16
F0.76746242473172632
sg13
F0.0011685324531987308
sg11
F0.0011706851503803292
sssS'140_500'
p1022
(dp1023
g9
(dp1024
g5
F170.64054037400578
sg11
F0.029019863733893928
sg12
F0.99861980867545996
sg13
F0.028295114286201496
ssg14
(dp1025
g5
F168.21386196487603
sg16
F0.82724817248161786
sg13
F0.012441086517578463
sg11
F0.012784240422262399
ssg17
(dp1026
g5
F170.64054037400578
sg16
F0.82839151125877986
sg13
F0.019892660470482784
sg11
F0.020386811595586005
sssS'30_35'
p1027
(dp1028
g9
(dp1029
g5
F32.617138906697413
sg11
F0.0014132597145242727
sg12
F1.0029917472478362
sg13
F0.0014115112889452083
ssg14
(dp1030
g5
F32.621526471348993
sg16
F0.79215776760870049
sg13
F0.00062829532153895395
sg11
F0.0006287923355932951
ssg17
(dp1031
g5
F32.617138906697413
sg16
F0.78979490088761495
sg13
F0.0009181407055138211
sg11
F0.00091946925105044542
sssS'60_90'
p1032
(dp1033
g9
(dp1034
g5
F68.690604083042203
sg11
F0.0025821916349966761
sg12
F0.98756893623979591
sg13
F0.0025721235207201705
ssg14
(dp1035
g5
F68.619785172867708
sg16
F0.82550778539057423
sg13
F0.0012459087142134776
sg11
F0.0012486593141755765
ssg17
(dp1036
g5
F68.690604083042203
sg16
F0.83589889788729554
sg13
F0.0017743015604715245
sg11
F0.001782775682245865
sssS'50_60'
p1037
(dp1038
g9
(dp1039
g5
F53.736622622585799
sg11
F0.0016139704127170896
sg12
F0.99050922600121505
sg13
F0.0016125801636949597
ssg14
(dp1040
g5
F53.753035802111476
sg16
F0.82512620327647346
sg13
F0.00078087855744790775
sg11
F0.00078058533868472705
ssg17
(dp1041
g5
F53.736622622585799
sg16
F0.83303232480487899
sg13
F0.0011035277390654475
sg11
F0.0011051755069467534
sssS'90_140'
p1042
(dp1043
g9
(dp1044
g5
F104.06496551612639
sg11
F0.0083077861600673319
sg12
F0.98193635885169983
sg13
F0.0082639847758297462
ssg14
(dp1045
g5
F104.2472459867498
sg16
F0.82607676581120559
sg13
F0.0040906072403369218
sg11
F0.0041276842709923843
ssg17
(dp1046
g5
F104.06496551612639
sg16
F0.84127322342686217
sg13
F0.0057248870398200202
sg11
F0.0057437886274380023
sssS'40_50'
p1047
(dp1048
g9
(dp1049
g5
F44.331003158128169
sg11
F0.00072383390042969002
sg12
F0.99448194437213167
sg13
F0.00073325050324160709
ssg14
(dp1050
g5
F44.321297084006645
sg16
F0.81959603394574554
sg13
F0.00034341590187504238
sg11
F0.00034438085596852943
ssg17
(dp1051
g5
F44.331003158128169
sg16
F0.82414370475393528
sg13
F0.00050000000000000001
sg11
F0.00048980188010336388
sssS'35_40'
p1052
(dp1053
g9
(dp1054
g5
F37.600850010618501
sg11
F0.0011293034861573343
sg12
F0.99704007535094319
sg13
F0.0011277892088420876
ssg14
(dp1055
g5
F37.593831793700787
sg16
F0.80363756147596987
sg13
F0.00051472430069256887
sg11
F0.0005153103094655741
ssg17
(dp1056
g5
F37.600850010618501
sg16
F0.80602332979755253
sg13
F0.00075148014103414238
sg11
F0.00075256156137112678
ssssg39
(dp1057
S'0.9_1.2'
p1058
(dp1059
g9
(dp1060
g39
F1.0471907430868523
sg12
F0.96509464970890924
sg13
F0.00067887468587333013
sg11
F0.00067955022353381571
ssg14
(dp1061
g39
F1.0472714398798364
sg11
F0.00035206416050718889
sg13
F0.00035167486048113947
sg16
F0.82789209015133569
ssg17
(dp1062
g39
F1.0471907430868523
sg11
F0.00048142486063981039
sg13
F0.0004809771437547485
sg16
F0.85783512570610931
sssS'1.2_2.1'
p1063
(dp1064
g9
(dp1065
g39
F1.6149976854893384
sg12
F0.99675929509988803
sg13
F0.00052895336875994963
sg11
F0.00052952145723972029
ssg14
(dp1066
g39
F1.611149554030554
sg11
F0.00024346441300267436
sg13
F0.00024309786577997089
sg16
F0.80902286768724108
ssg17
(dp1067
g39
F1.6149976854893384
sg11
F0.00035533031480694999
sg13
F0.00035502173516809449
sg16
F0.81165319617728438
sssS'0_0.9'
p1068
(dp1069
g9
(dp1070
g39
F0.43956048996058972
sg12
F0.98150142711219601
sg13
F0.00023623888964347136
sg11
F0.00023623509641654167
ssg14
(dp1071
g39
F0.44002865714673084
sg11
F0.00013569853962601357
sg13
F0.00013594270268621104
sg16
F0.92049653734494463
ssg17
(dp1072
g39
F0.43956048996058972
sg11
F0.00017843266524797421
sg13
F0.00017824422558033432
sg16
F0.93784533768153366
ssssg56
(dp1073
S'25_30'
p1074
(dp1075
g9
(dp1076
g11
F0.0028179807634629555
sg56
F27.735435122488262
sg12
F0.96748630694738924
sg13
F0.0028075226521317997
ssg14
(dp1077
g16
F0.788448480394631
sg56
F27.726443148475102
sg13
F0.0013570254260434718
sg11
F0.0013613639636779556
ssg17
(dp1078
g16
F0.81494536380813698
sg56
F27.735435122488262
sg13
F0.0019040037338109981
sg11
F0.0019116414955480576
sssS'140_500'
p1079
(dp1080
g9
(dp1081
g11
F0.027605129716439202
sg56
F174.23405032118944
sg12
F0.97490838071329056
sg13
F0.025556672852538178
ssg14
(dp1082
g16
F0.86509356199964538
sg56
F170.84353371386257
sg13
F0.015256508096692553
sg11
F0.016104872046797402
ssg17
(dp1083
g16
F0.88735883198244814
sg56
F174.23405032118944
sg13
F0.017210635728595148
sg11
F0.018932296447181359
sssS'30_35'
p1084
(dp1085
g9
(dp1086
g11
F0.0020175546175135984
sg56
F32.665954717254749
sg12
F0.96363545877262557
sg13
F0.0020127279703443541
ssg14
(dp1087
g16
F0.80341249311067786
sg56
F32.662207834345189
sg13
F0.0010037715096255636
sg11
F0.0010053922822336225
ssg17
(dp1088
g16
F0.83373072856199959
sg56
F32.665954717254749
sg13
F0.0013955042002058442
sg11
F0.001399459431152186
sssS'60_90'
p1089
(dp1090
g9
(dp1091
g11
F0.0031001202288573554
sg56
F68.707180498599001
sg12
F0.95938438227250833
sg13
F0.0030811464506897372
ssg14
(dp1092
g16
F0.83979200988168468
sg56
F68.696643999500623
sg13
F0.0016795563042703544
sg11
F0.0016892119180948414
ssg17
(dp1093
g16
F0.87534467456355358
sg56
F68.707180498599001
sg13
F0.0021996112968174523
sg11
F0.0022137264112622205
sssS'50_60'
p1094
(dp1095
g9
(dp1096
g11
F0.0020310576594009897
sg56
F53.730306467535478
sg12
F0.96271982144810753
sg13
F0.0020283543952305202
ssg14
(dp1097
g16
F0.84271429407398279
sg56
F53.754460353621553
sg13
F0.0010655441352713571
sg11
F0.0010669764143968682
ssg17
(dp1098
g16
F0.87534740149671542
sg56
F53.730306467535478
sg13
F0.0014752322253344379
sg11
F0.0014771888241500504
sssS'90_140'
p1099
(dp1100
g9
(dp1101
g11
F0.010708605978163213
sg56
F104.48320204950018
sg12
F0.96457245711372797
sg13
F0.010426062385625082
ssg14
(dp1102
g16
F0.84277750129777185
sg56
F104.48671043509304
sg13
F0.0055392175922355643
sg11
F0.0056340633703995937
ssg17
(dp1103
g16
F0.87373166741625519
sg56
F104.48320204950018
sg13
F0.0074976014176101361
sg11
F0.0077443326955742046
sssS'40_50'
p1104
(dp1105
g9
(dp1106
g11
F0.00051276402908262452
sg56
F44.334994036499069
sg12
F0.96628684055276604
sg13
F0.00089267219616748781
ssg14
(dp1107
g16
F0.83761433078806535
sg56
F44.330806835959912
sg13
F0.00048799958927928967
sg11
F0.00044448344016207375
ssg17
(dp1108
g16
F0.86683818472463792
sg56
F44.334994036499069
sg13
F0.00062147367385274128
sg11
F-0.0
sssS'35_40'
p1109
(dp1110
g9
(dp1111
g11
F0.0014929909226220094
sg56
F37.672955276824126
sg12
F0.96593014259771137
sg13
F0.001489410195379771
ssg14
(dp1112
g16
F0.81990912772498803
sg56
F37.661729356616569
sg13
F0.00075731165228737959
sg11
F0.00075851605064435512
ssg17
(dp1113
g16
F0.84882859698319002
sg56
F37.672955276824126
sg13
F0.001048039072628501
sg11
F0.0010510356729946395
ssssg83
(dp1114
S'-0.2_0.2'
p1115
(dp1116
g9
(dp1117
g11
F0.00047610216274910077
sg83
F-2.28310397982625e-05
sg12
F0.98368924070093655
sg13
F0.00047491838491702594
ssg14
(dp1118
g16
F0.92533801823451878
sg83
F0.00023217437003306403
sg13
F0.00027292598337019575
sg11
F0.00027343275398656914
ssg17
(dp1119
g16
F0.94068124357562444
sg83
F-2.28310397982625e-05
sg13
F0.00035955103016077833
sg11
F0.00036058329616455885
sssS'-2.1_-1.6'
p1120
(dp1121
g9
(dp1122
g11
F0.0011959868698467368
sg83
F-1.8432251389879815
sg12
F0.99852258657802218
sg13
F0.0011941667942396473
ssg14
(dp1123
g16
F0.77367294948427401
sg83
F-1.8431925331694343
sg13
F0.00052686724957621612
sg11
F0.00052757424063525158
ssg17
(dp1124
g16
F0.77481767551766945
sg83
F-1.8432251389879815
sg13
F0.00076173029335666043
sg11
F0.00076295788313657741
sssS'-1.2_-0.9'
p1125
(dp1126
g9
(dp1127
g11
F0.00095490902135068
sg83
F-1.0473056586939058
sg12
F0.96437782798077554
sg13
F0.00095313356777858369
ssg14
(dp1128
g16
F0.82876532278318193
sg83
F-1.0476170000684635
sg13
F0.00049560373123468235
sg11
F0.00049634062457823511
ssg17
(dp1129
g16
F0.85937824236218652
sg83
F-1.0473056586939058
sg13
F0.00067624372905876625
sg11
F0.00067765016522779165
sssS'1.6_2.1'
p1130
(dp1131
g9
(dp1132
g11
F0.0010739058208092435
sg83
F1.8412063332981758
sg12
F1.0241323171212784
sg13
F0.0010720884504126021
ssg14
(dp1133
g16
F0.82891300868096385
sg83
F1.8406275055244945
sg13
F0.00046753113804612621
sg11
F0.00046830291641965981
ssg17
(dp1134
g16
F0.80938077514333873
sg83
F1.8412063332981758
sg13
F0.00071377838721280857
sg11
F0.00071500132952918675
sssS'0.9_1.2'
p1135
(dp1136
g9
(dp1137
g11
F0.0009658876135764864
sg83
F1.0470758983248167
sg12
F0.96581815238097546
sg13
F0.00096346446797627517
ssg14
(dp1138
g16
F0.82702104167708801
sg83
F1.0469251512929085
sg13
F0.00049837380166754602
sg11
F0.00050035623682301094
ssg17
(dp1139
g16
F0.85629063777511427
sg83
F1.0470758983248167
sg13
F0.00068073182645439186
sg11
F0.00068187106766262736
sssS'-0.3_-0.2'
p1140
(dp1141
g9
(dp1142
g11
F0.0012410540009938362
sg83
F-0.24979679601233645
sg12
F0.9466820743517661
sg13
F0.0012360308141203492
ssg14
(dp1143
g16
F0.86163061464585744
sg83
F-0.24983828415344017
sg13
F0.00073871469835727339
sg11
F0.00074099839861461764
ssg17
(dp1144
g16
F0.91015837099889418
sg83
F-0.24979679601233645
sg13
F0.000896248936734118
sg11
F0.00090055141240080109
sssS'-0.6_-0.3'
p1145
(dp1146
g9
(dp1147
g11
F0.0005309145269672712
sg83
F-0.44856381096225978
sg12
F0.98663930135504285
sg13
F0.00052901805539391084
ssg14
(dp1148
g16
F0.93353990288015354
sg83
F-0.44840704047994367
sg13
F0.00030282707894982723
sg11
F0.00030380597232905016
ssg17
(dp1149
g16
F0.94618154942544552
sg83
F-0.44856381096225978
sg13
F0.00040394838812465384
sg11
F0.00040547865300820005
sssS'1.2_1.6'
p1150
(dp1151
g9
(dp1152
g11
F0.0010016988436309848
sg83
F1.3933004283377672
sg12
F0.97102556415588837
sg13
F0.00099983904956435954
ssg14
(dp1153
g16
F0.80293806028001768
sg83
F1.3924984734109058
sg13
F0.00048827894895126081
sg11
F0.00048886785778187074
ssg17
(dp1154
g16
F0.82689693239746065
sg83
F1.3933004283377672
sg13
F0.00068708255931941705
sg11
F0.00068860115934506476
sssS'0.2_0.3'
p1155
(dp1156
g9
(dp1157
g11
F0.0012117209852694868
sg83
F0.25005388632480086
sg12
F0.96167343284051576
sg13
F0.0012063726533141875
ssg14
(dp1158
g16
F0.87984779822377712
sg83
F0.24994775376409922
sg13
F0.0007045232323436803
sg11
F0.00070677248684516481
ssg17
(dp1159
g16
F0.91491328363408309
sg83
F0.25005388632480086
sg13
F0.00088348369895499405
sg11
F0.00088815352497627125
sssS'0.6_0.9'
p1160
(dp1161
g9
(dp1162
g11
F0.00060902310053640319
sg83
F0.74735688993370508
sg12
F0.98581349743884006
sg13
F0.00060711599274354728
ssg14
(dp1163
g16
F0.92108805874567534
sg83
F0.74670047900598191
sg13
F0.00034032285197314486
sg11
F0.00034112644160857596
ssg17
(dp1164
g16
F0.93434311980783136
sg83
F0.74735688993370508
sg13
F0.00046035702908080926
sg11
F0.00046200493292778273
sssS'-0.9_-0.6'
p1165
(dp1166
g9
(dp1167
g11
F0.00060295969188259237
sg83
F-0.74699537778767644
sg12
F0.98162645167351681
sg13
F0.00060115043174799093
ssg14
(dp1168
g16
F0.91922399400316479
sg83
F-0.74677707526374315
sg13
F0.00034434202615754513
sg11
F0.00034507697439019715
ssg17
(dp1169
g16
F0.93642952717506156
sg83
F-0.74699537778767644
sg13
F0.00045367183848283546
sg11
F0.000455274486377222
sssS'-1.6_-1.2'
p1170
(dp1171
g9
(dp1172
g11
F0.0009720180346550289
sg83
F-1.3930244592246399
sg12
F0.99323318195501165
sg13
F0.00097037399509767067
ssg14
(dp1173
g16
F0.8286892328773876
sg83
F-1.3925256868365132
sg13
F0.00046019699468689747
sg11
F0.0004608681429736844
ssg17
(dp1174
g16
F0.83433502618816346
sg83
F-1.3930244592246399
sg13
F0.00067064505631174096
sg11
F0.00067185676548494472
sssS'0.3_0.6'
p1175
(dp1176
g9
(dp1177
g11
F0.00053204180560607406
sg83
F0.44865751909164142
sg12
F0.9855272060126512
sg13
F0.00053004517072925532
ssg14
(dp1178
g16
F0.93227084108721703
sg83
F0.44878751305064796
sg13
F0.00030457530748717815
sg11
F0.0003052215910867807
ssg17
(dp1179
g16
F0.94596154768684237
sg83
F0.44865751909164142
sg13
F0.00040414319196340295
sg11
F0.00040605382093840051
ssssg150
(dp1180
S'4.5_6.5'
p1181
(dp1182
g9
(dp1183
g150
F5.6287779154674888
sg12
F0.98675873121081381
sg13
F0.0010523404190648619
sg11
F0.0010567853025443428
ssg14
(dp1184
g150
F5.6220674258978889
sg11
F0.00053133147745485811
sg13
F0.00052964391072327674
sg16
F0.90114087670344656
ssg17
(dp1185
g150
F5.6287779154674888
sg11
F0.00081647134625163634
sg13
F0.00081267121789618628
sg16
F0.91323324354849245
sssS'20.5_22.5'
p1186
(dp1187
g9
(dp1188
g150
F21.44596747766964
sg12
F0.97982138483759085
sg13
F0.0011111830741121339
sg11
F0.0011136605398397773
ssg14
(dp1189
g150
F21.43761701199838
sg11
F0.00060036359188846643
sg13
F0.00059938434144132964
sg16
F0.8365977134471092
ssg17
(dp1190
g150
F21.44596747766964
sg11
F0.00075256162966790268
sg13
F0.00075059123083722997
sg16
F0.85382675495062654
sssS'16.5_18.5'
p1191
(dp1192
g9
(dp1193
g150
F17.471601693911314
sg12
F0.97842706754511322
sg13
F0.00072132294884056432
sg11
F0.00072249949894420196
ssg14
(dp1194
g150
F17.463827321206306
sg11
F0.0003857519717710138
sg13
F0.00038515223960015367
sg16
F0.85523584437761668
ssg17
(dp1195
g150
F17.471601693911314
sg11
F0.00051105229002012251
sg13
F0.00051019764178095888
sg16
F0.8740925846659322
sssS'12.5_14.5'
p1196
(dp1197
g9
(dp1198
g150
F13.501444250943901
sg12
F0.98037772208457774
sg13
F0.00058160598325547044
sg11
F0.00058270064756303088
ssg14
(dp1199
g150
F13.492541643626511
sg11
F0.00030517788454996985
sg13
F0.00030467882398816883
sg16
F0.87335186930921604
ssg17
(dp1200
g150
F13.501444250943901
sg11
F0.00042830820767618367
sg13
F0.00042744853338401711
sg16
F0.89083202283728713
sssS'22.5_24.5'
p1201
(dp1202
g9
(dp1203
g150
F23.431559988077076
sg12
F0.98100963172503963
sg13
F0.0015287905323642717
sg11
F0.0015256589287160373
ssg14
(dp1204
g150
F23.424525715037824
sg11
F0.00083931711369779002
sg13
F0.0008468133754384391
sg16
F0.82661220063041729
ssg17
(dp1205
g150
F23.431559988077076
sg11
F0.00099258615340895085
sg13
F0.0009895202588722713
sg16
F0.84261374598012373
sssS'2.5_4.5'
p1206
(dp1207
g9
(dp1208
g150
F3.7129966952697813
sg12
F0.98721013883027053
sg13
F0.0019914122875055087
sg11
F0.0020105415356508451
ssg14
(dp1209
g150
F3.7109028897662606
sg11
F0.00100651972964568
sg13
F0.0009996293299658998
sg16
F0.906205623517781
ssg17
(dp1210
g150
F3.7129966952697813
sg11
F0.0015669874253931187
sg13
F0.0015503046059358078
sg16
F0.917946025748408
sssS'24.5_26.5'
p1211
(dp1212
g9
(dp1213
g150
F25.418375733953823
sg12
F0.97969026909333223
sg13
F0.0021471049294493377
sg11
F0.0021563107526108675
ssg14
(dp1214
g150
F25.410743099787688
sg11
F0.0011686076659382875
sg13
F0.0011658419628163596
sg16
F0.81326609521405424
ssg17
(dp1215
g150
F25.418375733953823
sg11
F0.0013840177422800757
sg13
F0.0013761498002611621
sg16
F0.83012572531388162
sssS'18.5_20.5'
p1216
(dp1217
g9
(dp1218
g150
F19.458723781120661
sg12
F0.97671012724925799
sg13
F0.00086877315733805175
sg11
F0.00087059044364915417
ssg14
(dp1219
g150
F19.451090780200548
sg11
F0.00046900131434114782
sg13
F0.00046827391212943959
sg16
F0.84542585172494977
ssg17
(dp1220
g150
F19.458723781120661
sg11
F0.00060390019896134131
sg13
F0.00060243468965751632
sg16
F0.8655852213859514
sssS'14.5_16.5'
p1221
(dp1222
g9
(dp1223
g150
F15.484647546941556
sg12
F0.97847109340563987
sg13
F0.00062811834099698867
sg11
F0.00062915436170646246
ssg14
(dp1224
g150
F15.476844673622926
sg11
F0.00033398397032462419
sg13
F0.00033340020019918039
sg16
F0.86446518198949851
ssg17
(dp1225
g150
F15.484647546941556
sg11
F0.00045409895246791492
sg13
F0.00045337715891474311
sg16
F0.88348566229040504
sssS'0.5_2.5'
p1226
(dp1227
g9
(dp1228
g150
F1.8637405772820559
sg12
F0.97272777022632217
sg13
F0.0058204461570109276
sg11
F0.005976714687883875
ssg14
(dp1229
g150
F1.8669366502748048
sg11
F0.0032413671714855382
sg13
F0.0031837766235768947
sg16
F0.9074100283448302
ssg17
(dp1230
g150
F1.8637405772820559
sg11
F0.0046635320814097676
sg13
F0.0045215180576163626
sg16
F0.93285095390430284
sssS'8.5_10.5'
p1231
(dp1232
g9
(dp1233
g150
F9.5385301474625024
sg12
F0.98294339351028059
sg13
F0.00060970128828379195
sg11
F0.00061103748469689312
ssg14
(dp1234
g150
F9.5336061508911101
sg11
F0.00031412496421807695
sg13
F0.00031354693732097116
sg16
F0.8886787133536791
ssg17
(dp1235
g150
F9.5385301474625024
sg11
F0.00046232386086115878
sg13
F0.00046123627098458602
sg16
F0.90409958418870473
sssS'28.5_30.5'
p1236
(dp1237
g9
(dp1238
g150
F29.398183283957756
sg12
F0.98025119015317663
sg13
F0.0051311961953877895
sg11
F0.0051771345659520464
ssg14
(dp1239
g150
F29.388946484109677
sg11
F0.0027329663443665668
sg13
F0.002717770717785587
sg16
F0.78680752548910182
ssg17
(dp1240
g150
F29.398183283957756
sg11
F0.0031933785078077574
sg13
F0.0031569540766734168
sg16
F0.80265908717351642
sssS'10.5_12.5'
p1241
(dp1242
g9
(dp1243
g150
F11.516567050782784
sg12
F0.98140407733912127
sg13
F0.00057026036112274017
sg11
F0.00057147010375901833
ssg14
(dp1244
g150
F11.509304822522333
sg11
F0.00029708887681886582
sg13
F0.00029654271808554129
sg16
F0.88152483812047322
ssg17
(dp1245
g150
F11.516567050782784
sg11
F0.00042653173334384183
sg13
F0.00042556895724437272
sg16
F0.89822822064337615
sssS'26.5_28.5'
p1246
(dp1247
g9
(dp1248
g150
F27.407716417278689
sg12
F0.9826502026502586
sg13
F0.0032060249308815555
sg11
F0.003218908866455969
ssg14
(dp1249
g150
F27.393182370082563
sg11
F0.0017230292263423902
sg13
F0.0017175490496960885
sg16
F0.80305424116517221
ssg17
(dp1250
g150
F27.407716417278689
sg11
F0.0020228639184777593
sg13
F0.0020135169220892408
sg16
F0.81723306930512329
sssS'6.5_8.5'
p1251
(dp1252
g9
(dp1253
g150
F7.5749600260375987
sg12
F0.98422337612175348
sg13
F0.00073070892904623604
sg11
F0.00073285201703824406
ssg14
(dp1254
g150
F7.5695368814301691
sg11
F0.00037334167153460924
sg13
F0.0003724861348350813
sg16
F0.89538161470831468
ssg17
(dp1255
g150
F7.5749600260375987
sg11
F0.00056121773348511241
sg13
F0.00055941425523313849
sg16
F0.90973414819356146
ssssg227
(dp1256
S'25_30'
p1257
(dp1258
g9
(dp1259
g11
F0.001290896537101112
sg12
F0.97827218192052745
sg227
F27.808046829453065
sg13
F0.0012866885786207752
ssg14
(dp1260
g16
F0.86568893985811624
sg13
F0.00068051804877087457
sg227
F27.80288958312747
sg11
F0.00068166365708764753
ssg17
(dp1261
g16
F0.88491623891278426
sg13
F0.0009331451893252815
sg227
F27.808046829453065
sg11
F0.0009370188626022589
sssS'140_500'
p1262
(dp1263
g9
(dp1264
g11
F0.0094286856316882581
sg12
F0.98134345236517484
sg227
F174.73115556367304
sg13
F0.0090176215868314376
ssg14
(dp1265
g16
F0.93408290710363895
sg13
F0.005916719544818508
sg227
F170.9297132023566
sg11
F0.0057681032850484216
ssg17
(dp1266
g16
F0.95184097356778463
sg13
F0.0063364298569711219
sg227
F174.73115556367304
sg11
F0.0070062188760837705
sssS'30_35'
p1267
(dp1268
g9
(dp1269
g11
F0.00079534920902091873
sg12
F0.97987113974867501
sg227
F32.725420841889864
sg13
F0.00079356417610289948
ssg14
(dp1270
g16
F0.89305480934497306
sg13
F0.00043188192150473933
sg227
F32.71979672103997
sg11
F0.00043253282186571943
ssg17
(dp1271
g16
F0.91140025776657807
sg13
F0.00059206869540569306
sg227
F32.725420841889864
sg11
F0.00059364389055194483
sssS'60_90'
p1272
(dp1273
g9
(dp1274
g11
F0.0010194152713344368
sg12
F0.9843104395735206
sg227
F68.720023521349219
sg13
F0.0010132746374257862
ssg14
(dp1275
g16
F0.9393302720274268
sg13
F0.00060475006579055685
sg227
F68.707252784549951
sg11
F0.00060836921353347681
ssg17
(dp1276
g16
F0.95430286448492541
sg13
F0.00076655326374785245
sg227
F68.720023521349219
sg11
F0.00077123597126628419
sssS'50_60'
p1277
(dp1278
g9
(dp1279
g11
F0.00066053704638345772
sg12
F0.98295640220105773
sg227
F53.749378213196643
sg13
F0.00065749614204208549
ssg14
(dp1280
g16
F0.93742633280239851
sg13
F0.00038710393034392698
sg227
F53.78251541296661
sg11
F0.00038758895115089098
ssg17
(dp1281
g16
F0.95368047932064204
sg13
F0.00050183933100650933
sg227
F53.749378213196643
sg11
F0.00050519961549170568
sssS'90_140'
p1282
(dp1283
g9
(dp1284
g11
F0.0033813572547592157
sg12
F0.98093066459167155
sg227
F104.51946790586761
sg13
F0.0033007849106316735
ssg14
(dp1285
g16
F0.93526778185366055
sg13
F0.0019786533762073217
sg227
F104.49530353567646
sg11
F0.0020117662336947314
ssg17
(dp1286
g16
F0.95344942880644989
sg13
F0.0024948943915330309
sg227
F104.51946790586761
sg11
F0.0025682344330164118
sssS'40_50'
p1287
(dp1288
g9
(dp1289
g11
F0.00029642024560859909
sg12
F0.98164325028449217
sg227
F44.319274191298788
sg13
F0.0002972126128580456
ssg14
(dp1290
g16
F0.93025575829104024
sg13
F0.00017175314383234742
sg227
F44.314734130851562
sg11
F0.00016962102440514157
ssg17
(dp1291
g16
F0.94765156081034607
sg13
F0.00022740029498582811
sg227
F44.319274191298788
sg11
F0.00022809615792389735
sssS'35_40'
p1292
(dp1293
g9
(dp1294
g11
F0.00051993782783101982
sg12
F0.98141418356946253
sg227
F37.654740665676179
sg13
F0.00051869556639522619
ssg14
(dp1295
g16
F0.91339236716970529
sg13
F0.00029226767378091162
sg227
F37.650851440003379
sg11
F0.00029285188175037395
ssg17
(dp1296
g16
F0.93069000067600638
sg13
F0.00039149245674908968
sg227
F37.654740665676179
sg11
F0.0003925197706924887
ssssss.